
GccApplication1.elf:     file format elf32-avr

Sections:
Idx Name          Size      VMA       LMA       File off  Algn
  0 .data         00000062  00800100  00004f04  00004f98  2**0
                  CONTENTS, ALLOC, LOAD, DATA
  1 .text         00004f04  00000000  00000000  00000094  2**1
                  CONTENTS, ALLOC, LOAD, READONLY, CODE
  2 .bss          000006f4  00800162  00800162  00004ffa  2**0
                  ALLOC
  3 .comment      0000005c  00000000  00000000  00004ffa  2**0
                  CONTENTS, READONLY
  4 .note.gnu.avr.deviceinfo 00000040  00000000  00000000  00005058  2**2
                  CONTENTS, READONLY
  5 .debug_info   000005f4  00000000  00000000  00005098  2**0
                  CONTENTS, READONLY, DEBUGGING
  6 .debug_abbrev 000005a2  00000000  00000000  0000568c  2**0
                  CONTENTS, READONLY, DEBUGGING
  7 .debug_line   00000133  00000000  00000000  00005c2e  2**0
                  CONTENTS, READONLY, DEBUGGING
  8 .debug_str    00000208  00000000  00000000  00005d61  2**0
                  CONTENTS, READONLY, DEBUGGING

Disassembly of section .text:

00000000 <__vectors>:
       0:	0c 94 55 03 	jmp	0x6aa	; 0x6aa <__ctors_end>
       4:	0c 94 72 03 	jmp	0x6e4	; 0x6e4 <__bad_interrupt>
       8:	0c 94 72 03 	jmp	0x6e4	; 0x6e4 <__bad_interrupt>
       c:	0c 94 72 03 	jmp	0x6e4	; 0x6e4 <__bad_interrupt>
      10:	0c 94 72 03 	jmp	0x6e4	; 0x6e4 <__bad_interrupt>
      14:	0c 94 72 03 	jmp	0x6e4	; 0x6e4 <__bad_interrupt>
      18:	0c 94 72 03 	jmp	0x6e4	; 0x6e4 <__bad_interrupt>
      1c:	0c 94 72 03 	jmp	0x6e4	; 0x6e4 <__bad_interrupt>
      20:	0c 94 72 03 	jmp	0x6e4	; 0x6e4 <__bad_interrupt>
      24:	0c 94 72 03 	jmp	0x6e4	; 0x6e4 <__bad_interrupt>
      28:	0c 94 72 03 	jmp	0x6e4	; 0x6e4 <__bad_interrupt>
      2c:	0c 94 72 03 	jmp	0x6e4	; 0x6e4 <__bad_interrupt>
      30:	0c 94 72 03 	jmp	0x6e4	; 0x6e4 <__bad_interrupt>
      34:	0c 94 72 03 	jmp	0x6e4	; 0x6e4 <__bad_interrupt>
      38:	0c 94 1c 09 	jmp	0x1238	; 0x1238 <__vector_14>
      3c:	0c 94 72 03 	jmp	0x6e4	; 0x6e4 <__bad_interrupt>
      40:	0c 94 72 03 	jmp	0x6e4	; 0x6e4 <__bad_interrupt>
      44:	0c 94 72 03 	jmp	0x6e4	; 0x6e4 <__bad_interrupt>
      48:	0c 94 f8 05 	jmp	0xbf0	; 0xbf0 <__vector_18>
      4c:	0c 94 38 06 	jmp	0xc70	; 0xc70 <__vector_19>
      50:	0c 94 72 03 	jmp	0x6e4	; 0x6e4 <__bad_interrupt>
      54:	0c 94 48 05 	jmp	0xa90	; 0xa90 <__vector_21>
      58:	0c 94 72 03 	jmp	0x6e4	; 0x6e4 <__bad_interrupt>
      5c:	0c 94 72 03 	jmp	0x6e4	; 0x6e4 <__bad_interrupt>
      60:	0c 94 72 03 	jmp	0x6e4	; 0x6e4 <__bad_interrupt>
      64:	0c 94 72 03 	jmp	0x6e4	; 0x6e4 <__bad_interrupt>

00000068 <__trampolines_end>:
      68:	bf 02       	muls	r27, r31
      6a:	03 02       	muls	r16, r19
      6c:	03 03       	mulsu	r16, r19
      6e:	01 01       	movw	r0, r2
      70:	04 04       	cpc	r0, r4
      72:	06 00       	.word	0x0006	; ????
      74:	ff 05       	cpc	r31, r15
      76:	ff 05       	cpc	r31, r15
      78:	ff 01       	movw	r30, r30
      7a:	06 02       	muls	r16, r22
      7c:	09 06       	cpc	r0, r25
      7e:	24 20       	and	r2, r4
      80:	06 74       	andi	r16, 0x46	; 70
      82:	7c 36       	cpi	r23, 0x6C	; 108
      84:	00 21       	and	r16, r0
      86:	08 74       	andi	r16, 0x48	; 72
      88:	9c ac       	ldd	r9, Y+60	; 0x3c
      8a:	0e c4       	rjmp	.+2076   	; 0x8a8 <task_gui+0x104>
      8c:	00 22       	and	r0, r16
      8e:	07 74       	andi	r16, 0x47	; 71
      90:	8c a4       	ldd	r8, Y+44	; 0x2c
      92:	9d 06       	cpc	r9, r29
      94:	23 0b       	sbc	r18, r19
      96:	74 8c       	ldd	r7, Z+28	; 0x1c
      98:	24 19       	sub	r18, r4
      9a:	94 64       	ori	r25, 0x44	; 68
      9c:	50 52       	subi	r21, 0x20	; 32
      9e:	00 24       	eor	r0, r0
      a0:	09 74       	andi	r16, 0x49	; 73
      a2:	9c 68       	ori	r25, 0x8C	; 140
      a4:	11 93       	st	Z+, r17
      a6:	29 02       	muls	r18, r25
      a8:	25 08       	sbc	r2, r5
      aa:	74 8c       	ldd	r7, Z+28	; 0x1c
      ac:	34 aa       	std	Z+52, r3	; 0x34
      ae:	a6 00       	.word	0x00a6	; ????
      b0:	26 0a       	sbc	r2, r22
      b2:	74 9c       	mul	r7, r4
      b4:	28 89       	ldd	r18, Y+16	; 0x10
      b6:	2a 51       	subi	r18, 0x1A	; 26
      b8:	12 02       	muls	r17, r18
      ba:	27 07       	cpc	r18, r23
      bc:	74 9c       	mul	r7, r4
      be:	2c 27       	eor	r18, r28
      c0:	02 28       	or	r0, r2
      c2:	07 74       	andi	r16, 0x47	; 71
      c4:	ac 5a       	subi	r26, 0xAC	; 172
      c6:	63 02       	muls	r22, r19
      c8:	29 08       	sbc	r2, r9
      ca:	74 8c       	ldd	r7, Z+28	; 0x1c
      cc:	30 6b       	ori	r19, 0xB0	; 176
      ce:	ca 00       	.word	0x00ca	; ????
      d0:	2a 09       	sbc	r18, r10
      d2:	74 8c       	ldd	r7, Z+28	; 0x1c
      d4:	24 8a       	std	Z+20, r2	; 0x14
      d6:	a6 4a       	sbci	r26, 0xA6	; 166
      d8:	0a 2b       	or	r16, r26
      da:	08 74       	andi	r16, 0x48	; 72
      dc:	9c 2c       	mov	r9, r12
      de:	9a b2       	in	r9, 0x1a	; 26
      e0:	18 2c       	mov	r1, r8
      e2:	07 74       	andi	r16, 0x47	; 71
      e4:	7c 5a       	subi	r23, 0xAC	; 172
      e6:	94 01       	movw	r18, r8
      e8:	2d 07       	cpc	r18, r29
      ea:	74 7c       	andi	r23, 0xC4	; 196
      ec:	64 87       	std	Z+12, r22	; 0x0c
      ee:	01 2e       	mov	r0, r17
      f0:	06 74       	andi	r16, 0x46	; 70
      f2:	7c 5a       	subi	r23, 0xAC	; 172
      f4:	0c 2f       	mov	r16, r28
      f6:	08 74       	andi	r16, 0x48	; 72
      f8:	ac 2c       	mov	r10, r12
      fa:	aa e5       	ldi	r26, 0x5A	; 90
      fc:	00 30       	cpi	r16, 0x00	; 0
      fe:	09 74       	andi	r16, 0x49	; 73
     100:	9c 28       	or	r9, r12
     102:	49 96       	adiw	r24, 0x19	; 25
     104:	52 0c       	add	r5, r2
     106:	31 08       	sbc	r3, r1
     108:	74 9c       	mul	r7, r4
     10a:	48 2b       	or	r20, r24
     10c:	ad 00       	.word	0x00ad	; ????
     10e:	32 09       	sbc	r19, r2
     110:	74 9c       	mul	r7, r4
     112:	28 c9       	rjmp	.-3504   	; 0xfffff364 <__eeprom_end+0xff7ef364>
     114:	a2 68       	ori	r26, 0x82	; 130
     116:	05 33       	cpi	r16, 0x35	; 53
     118:	08 74       	andi	r16, 0x48	; 72
     11a:	8c 2d       	mov	r24, r12
     11c:	0a 13       	cpse	r16, r26
     11e:	19 34       	cpi	r17, 0x49	; 73
     120:	08 74       	andi	r16, 0x48	; 72
     122:	8c a4       	ldd	r8, Y+44	; 0x2c
     124:	65 ab       	std	Z+53, r22	; 0x35
     126:	02 35       	cpi	r16, 0x52	; 82
     128:	08 74       	andi	r16, 0x48	; 72
     12a:	8c 25       	eor	r24, r12
     12c:	13 13       	cpse	r17, r19
     12e:	19 36       	cpi	r17, 0x69	; 105
     130:	09 74       	andi	r16, 0x49	; 73
     132:	1c 25       	eor	r17, r12
     134:	93 92       	.word	0x9293	; ????
     136:	28 06       	cpc	r2, r24
     138:	37 08       	sbc	r3, r7
     13a:	74 8c       	ldd	r7, Z+28	; 0x1c
     13c:	2d aa       	std	Y+53, r2	; 0x35
     13e:	e5 00       	.word	0x00e5	; ????
     140:	38 09       	sbc	r19, r8
     142:	74 1c       	adc	r7, r4
     144:	a5 54       	subi	r26, 0x45	; 69
     146:	49 64       	ori	r20, 0x49	; 73
     148:	00 39       	cpi	r16, 0x90	; 144
     14a:	09 74       	andi	r16, 0x49	; 73
     14c:	9c 28       	or	r9, r12
     14e:	89 b4       	in	r8, 0x29	; 41
     150:	44 06       	cpc	r4, r20
     152:	3a 07       	cpc	r19, r26
     154:	74 dc       	rcall	.-1816   	; 0xfffffa3e <__eeprom_end+0xff7efa3e>
     156:	1c 8c       	ldd	r1, Y+28	; 0x1c
     158:	01 3b       	cpi	r16, 0xB1	; 177
     15a:	08 74       	andi	r16, 0x48	; 72
     15c:	dc 1c       	adc	r13, r12
     15e:	8c 32       	cpi	r24, 0x2C	; 44
     160:	00 3c       	cpi	r16, 0xC0	; 192
     162:	07 74       	andi	r16, 0x47	; 71
     164:	ac c6       	rjmp	.+3416   	; 0xebe <pvPortMalloc+0x10>
     166:	2a 00       	.word	0x002a	; ????
     168:	3d 07       	cpc	r19, r29
     16a:	74 cc       	rjmp	.-1816   	; 0xfffffa54 <__eeprom_end+0xff7efa54>
     16c:	75 87       	std	Z+13, r23	; 0x0d
     16e:	00 3e       	cpi	r16, 0xE0	; 224
     170:	07 74       	andi	r16, 0x47	; 71
     172:	8c b0       	in	r8, 0x0c	; 12
     174:	54 07       	cpc	r21, r20
     176:	3f 08       	sbc	r3, r15
     178:	74 0c       	add	r7, r4
     17a:	31 ca       	rjmp	.-2974   	; 0xfffff5de <__eeprom_end+0xff7ef5de>
     17c:	81 18       	sub	r8, r1
     17e:	40 07       	cpc	r20, r16
     180:	74 1c       	adc	r7, r4
     182:	a5 47       	sbci	r26, 0x75	; 117
     184:	15 41       	sbci	r17, 0x15	; 21
     186:	09 74       	andi	r16, 0x49	; 73
     188:	9c 28       	or	r9, r12
     18a:	49 96       	adiw	r24, 0x19	; 25
     18c:	ae 00       	.word	0x00ae	; ????
     18e:	42 0a       	sbc	r4, r18
     190:	74 0c       	add	r7, r4
     192:	29 49       	sbci	r18, 0x99	; 153
     194:	a4 24       	eor	r10, r4
     196:	91 01       	movw	r18, r2
     198:	43 09       	sbc	r20, r3
     19a:	74 9c       	mul	r7, r4
     19c:	28 a9       	ldd	r18, Y+48	; 0x30
     19e:	25 51       	subi	r18, 0x15	; 21
     1a0:	0c 44       	sbci	r16, 0x4C	; 76
     1a2:	08 74       	andi	r16, 0x48	; 72
     1a4:	0c 29       	or	r16, r12
     1a6:	e9 45       	sbci	r30, 0x59	; 89
     1a8:	06 45       	sbci	r16, 0x56	; 86
     1aa:	08 74       	andi	r16, 0x48	; 72
     1ac:	8c 25       	eor	r24, r12
     1ae:	93 b2       	in	r9, 0x13	; 19
     1b0:	15 46       	sbci	r17, 0x65	; 101
     1b2:	08 74       	andi	r16, 0x48	; 72
     1b4:	8c 25       	eor	r24, r12
     1b6:	93 b2       	in	r9, 0x13	; 19
     1b8:	1c 47       	sbci	r17, 0x7C	; 124
     1ba:	09 74       	andi	r16, 0x49	; 73
     1bc:	1c 25       	eor	r17, r12
     1be:	4b 9a       	sbi	0x09, 3	; 9
     1c0:	54 00       	.word	0x0054	; ????
     1c2:	48 08       	sbc	r4, r8
     1c4:	74 8c       	ldd	r7, Z+28	; 0x1c
     1c6:	a4 65       	ori	r26, 0x54	; 84
     1c8:	e9 0a       	sbc	r14, r25
     1ca:	49 08       	sbc	r4, r9
     1cc:	74 8c       	ldd	r7, Z+28	; 0x1c
     1ce:	29 2b       	or	r18, r25
     1d0:	ad 00       	.word	0x00ad	; ????
     1d2:	4a 08       	sbc	r4, r10
     1d4:	74 ac       	ldd	r7, Z+60	; 0x3c
     1d6:	ac 52       	subi	r26, 0x2C	; 44
     1d8:	8a 01       	movw	r16, r20
     1da:	4b 09       	sbc	r20, r11
     1dc:	74 8c       	ldd	r7, Z+28	; 0x1c
     1de:	a4 45       	sbci	r26, 0x54	; 84
     1e0:	4a 5a       	subi	r20, 0xAA	; 170
     1e2:	01 4c       	sbci	r16, 0xC1	; 193
     1e4:	07 74       	andi	r16, 0x47	; 71
     1e6:	8c ac       	ldd	r8, Y+60	; 0x3c
     1e8:	6d 05       	cpc	r22, r13
     1ea:	4d 08       	sbc	r4, r13
     1ec:	74 8c       	ldd	r7, Z+28	; 0x1c
     1ee:	24 b9       	out	0x04, r18	; 4
     1f0:	74 05       	cpc	r23, r4
     1f2:	4e 08       	sbc	r4, r14
     1f4:	74 ac       	ldd	r7, Z+60	; 0x3c
     1f6:	a4 b2       	in	r10, 0x14	; 20
     1f8:	b4 03       	fmuls	r19, r20
     1fa:	4f 08       	sbc	r4, r15
     1fc:	74 9c       	mul	r7, r4
     1fe:	28 e9       	ldi	r18, 0x98	; 152
     200:	29 06       	cpc	r2, r25
     202:	50 09       	sbc	r21, r0
     204:	74 0c       	add	r7, r4
     206:	29 49       	sbci	r18, 0x99	; 153
     208:	a4 2c       	mov	r10, r4
     20a:	07 51       	subi	r16, 0x17	; 23
     20c:	09 74       	andi	r16, 0x49	; 73
     20e:	9c 28       	or	r9, r12
     210:	e9 29       	or	r30, r9
     212:	4c 00       	.word	0x004c	; ????
     214:	52 09       	sbc	r21, r2
     216:	74 0c       	add	r7, r4
     218:	29 49       	sbci	r18, 0x99	; 153
     21a:	a4 a4       	ldd	r10, Z+44	; 0x2c
     21c:	15 53       	subi	r17, 0x35	; 53
     21e:	08 74       	andi	r16, 0x48	; 72
     220:	1c 25       	eor	r17, r12
     222:	ac c8       	rjmp	.-3752   	; 0xfffff37c <__eeprom_end+0xff7ef37c>
     224:	00 54       	subi	r16, 0x40	; 64
     226:	07 74       	andi	r16, 0x47	; 71
     228:	8c 29       	or	r24, r12
     22a:	6b 06       	cpc	r6, r27
     22c:	55 08       	sbc	r5, r5
     22e:	74 8c       	ldd	r7, Z+28	; 0x1c
     230:	a4 5f       	subi	r26, 0xF4	; 244
     232:	56 00       	.word	0x0056	; ????
     234:	56 08       	sbc	r5, r6
     236:	74 8c       	ldd	r7, Z+28	; 0x1c
     238:	a4 97       	sbiw	r28, 0x24	; 36
     23a:	29 06       	cpc	r2, r25
     23c:	57 08       	sbc	r5, r7
     23e:	74 8c       	ldd	r7, Z+28	; 0x1c
     240:	a4 e5       	ldi	r26, 0x54	; 84
     242:	52 05       	cpc	r21, r2
     244:	58 08       	sbc	r5, r8
     246:	74 8c       	ldd	r7, Z+28	; 0x1c
     248:	a4 a9       	ldd	r26, Z+52	; 0x34
     24a:	d2 0a       	sbc	r13, r18
     24c:	59 08       	sbc	r5, r9
     24e:	74 8c       	ldd	r7, Z+28	; 0x1c
     250:	a4 29       	or	r26, r4
     252:	2b 03       	fmul	r18, r19
     254:	5a 08       	sbc	r5, r10
     256:	74 8c       	ldd	r7, Z+28	; 0x1c
     258:	2d aa       	std	Y+53, r2	; 0x35
     25a:	ad 00       	.word	0x00ad	; ????
     25c:	5b 08       	sbc	r5, r11
     25e:	74 1c       	adc	r7, r4
     260:	29 ab       	std	Y+49, r18	; 0x31
     262:	a9 00       	.word	0x00a9	; ????
     264:	5c 08       	sbc	r5, r12
     266:	74 8c       	ldd	r7, Z+28	; 0x1c
     268:	2c ac       	ldd	r2, Y+60	; 0x3c
     26a:	a5 00       	.word	0x00a5	; ????
     26c:	5d 07       	cpc	r21, r29
     26e:	74 0c       	add	r7, r4
     270:	ad 49       	sbci	r26, 0x9D	; 157
     272:	06 5e       	subi	r16, 0xE6	; 230
     274:	08 74       	andi	r16, 0x48	; 72
     276:	9c 28       	or	r9, r12
     278:	c9 69       	ori	r28, 0x99	; 153
     27a:	00 5f       	subi	r16, 0xF0	; 240
     27c:	06 74       	andi	r16, 0x46	; 70
     27e:	7c f2       	brlt	.-98     	; 0x21e <__trampolines_end+0x1b6>
     280:	02 60       	ori	r16, 0x02	; 2
     282:	07 74       	andi	r16, 0x47	; 71
     284:	9c 30       	cpi	r25, 0x0C	; 12
     286:	a7 01       	movw	r20, r14
     288:	61 07       	cpc	r22, r17
     28a:	74 5c       	subi	r23, 0xC4	; 196
     28c:	a5 93       	las	Z, r26
     28e:	0a 62       	ori	r16, 0x2A	; 42
     290:	09 74       	andi	r16, 0x49	; 73
     292:	8c 4c       	sbci	r24, 0xCC	; 204
     294:	4a 5a       	subi	r20, 0xAA	; 170
     296:	64 00       	.word	0x0064	; ????
     298:	63 08       	sbc	r6, r3
     29a:	74 5c       	subi	r23, 0xC4	; 196
     29c:	25 0b       	sbc	r18, r21
     29e:	55 00       	.word	0x0055	; ????
     2a0:	64 08       	sbc	r6, r4
     2a2:	74 ac       	ldd	r7, Z+60	; 0x3c
     2a4:	48 e9       	ldi	r20, 0x98	; 152
     2a6:	a4 02       	muls	r26, r20
     2a8:	65 08       	sbc	r6, r5
     2aa:	74 dc       	rcall	.-1816   	; 0xfffffb94 <__eeprom_end+0xff7efb94>
     2ac:	28 49       	sbci	r18, 0x98	; 152
     2ae:	34 15       	cp	r19, r4
     2b0:	66 08       	sbc	r6, r6
     2b2:	74 ac       	ldd	r7, Z+60	; 0x3c
     2b4:	d2 94       	swap	r13
     2b6:	c5 00       	.word	0x00c5	; ????
     2b8:	67 09       	sbc	r22, r7
     2ba:	74 5c       	subi	r23, 0xC4	; 196
     2bc:	a5 a4       	ldd	r10, Z+45	; 0x2d
     2be:	25 12       	cpse	r2, r21
     2c0:	00 68       	ori	r16, 0x80	; 128
     2c2:	08 74       	andi	r16, 0x48	; 72
     2c4:	8c 4c       	sbci	r24, 0xCC	; 204
     2c6:	4a 7a       	andi	r20, 0xAA	; 170
     2c8:	05 69       	ori	r16, 0x95	; 149
     2ca:	08 74       	andi	r16, 0x48	; 72
     2cc:	9c 58       	subi	r25, 0x8C	; 140
     2ce:	8b 56       	subi	r24, 0x6B	; 107
     2d0:	00 6a       	ori	r16, 0xA0	; 160
     2d2:	09 74       	andi	r16, 0x49	; 73
     2d4:	ac 1c       	adc	r10, r12
     2d6:	c8 2a       	or	r12, r24
     2d8:	12 00       	.word	0x0012	; ????
     2da:	6b 09       	sbc	r22, r11
     2dc:	74 8c       	ldd	r7, Z+28	; 0x1c
     2de:	2c 49       	sbci	r18, 0x9C	; 156
     2e0:	a4 a4       	ldd	r10, Z+44	; 0x2c
     2e2:	15 6c       	ori	r17, 0xC5	; 197
     2e4:	07 74       	andi	r16, 0x47	; 71
     2e6:	0c ad       	ldd	r16, Y+60	; 0x3c
     2e8:	69 05       	cpc	r22, r9
     2ea:	6d 08       	sbc	r6, r13
     2ec:	74 cc       	rjmp	.-1816   	; 0xfffffbd6 <__eeprom_end+0xff7efbd6>
     2ee:	24 59       	subi	r18, 0x94	; 148
     2f0:	ba 02       	muls	r27, r26
     2f2:	6e 07       	cpc	r22, r30
     2f4:	74 4c       	sbci	r23, 0xC4	; 196
     2f6:	29 e9       	ldi	r18, 0x99	; 153
     2f8:	15 6f       	ori	r17, 0xF5	; 245
     2fa:	08 74       	andi	r16, 0x48	; 72
     2fc:	dc 28       	or	r13, r12
     2fe:	69 8a       	std	Y+17, r6	; 0x11
     300:	01 70       	andi	r16, 0x01	; 1
     302:	09 74       	andi	r16, 0x49	; 73
     304:	4c 29       	or	r20, r12
     306:	49 a4       	ldd	r4, Y+41	; 0x29
     308:	2c 03       	fmul	r18, r20
     30a:	71 08       	sbc	r7, r1
     30c:	74 5c       	subi	r23, 0xC4	; 196
     30e:	a5 93       	las	Z, r26
     310:	96 00       	.word	0x0096	; ????
     312:	72 08       	sbc	r7, r2
     314:	74 cc       	rjmp	.-1816   	; 0xfffffbfe <__eeprom_end+0xff7efbfe>
     316:	24 91       	lpm	r18, Z
     318:	b2 1c       	adc	r11, r2
     31a:	73 08       	sbc	r7, r3
     31c:	74 5c       	subi	r23, 0xC4	; 196
     31e:	45 4c       	sbci	r20, 0xC5	; 197
     320:	64 00       	.word	0x0064	; ????
     322:	74 08       	sbc	r7, r4
     324:	74 9c       	mul	r7, r4
     326:	68 ca       	rjmp	.-2864   	; 0xfffff7f8 <__eeprom_end+0xff7ef7f8>
     328:	c2 14       	cp	r12, r2
     32a:	75 07       	cpc	r23, r21
     32c:	74 cc       	rjmp	.-1816   	; 0xfffffc16 <__eeprom_end+0xff7efc16>
     32e:	a4 27       	eor	r26, r20
     330:	15 76       	andi	r17, 0x65	; 101
     332:	07 74       	andi	r16, 0x47	; 71
     334:	cc a4       	ldd	r12, Y+44	; 0x2c
     336:	a7 18       	sub	r10, r7
     338:	77 08       	sbc	r7, r7
     33a:	74 cc       	rjmp	.-1816   	; 0xfffffc24 <__eeprom_end+0xff7efc24>
     33c:	a4 65       	ori	r26, 0x54	; 84
     33e:	a9 02       	muls	r26, r25
     340:	78 09       	sbc	r23, r8
     342:	74 cc       	rjmp	.-1816   	; 0xfffffc2c <__eeprom_end+0xff7efc2c>
     344:	24 ca       	rjmp	.-3000   	; 0xfffff78e <__eeprom_end+0xff7ef78e>
     346:	a2 24       	eor	r10, r2
     348:	05 79       	andi	r16, 0x95	; 149
     34a:	09 74       	andi	r16, 0x49	; 73
     34c:	cc a4       	ldd	r12, Y+44	; 0x2c
     34e:	49 4b       	sbci	r20, 0xB9	; 185
     350:	24 00       	.word	0x0024	; ????
     352:	7a 08       	sbc	r7, r10
     354:	74 cc       	rjmp	.-1816   	; 0xfffffc3e <__eeprom_end+0xff7efc3e>
     356:	2d 8a       	std	Y+21, r2	; 0x15
     358:	56 00       	.word	0x0056	; ????
     35a:	7b 08       	sbc	r7, r11
     35c:	74 ac       	ldd	r7, Z+60	; 0x3c
     35e:	92 56       	subi	r25, 0x62	; 98
     360:	4c 00       	.word	0x004c	; ????
     362:	7c 07       	cpc	r23, r28
     364:	74 9c       	mul	r7, r4
     366:	ac 33       	cpi	r26, 0x3C	; 60
     368:	00 7d       	andi	r16, 0xD0	; 208
     36a:	09 74       	andi	r16, 0x49	; 73
     36c:	8c 30       	cpi	r24, 0x0C	; 12
     36e:	93 b2       	in	r9, 0x13	; 19
     370:	28 03       	fmul	r18, r16
     372:	7e 08       	sbc	r7, r14
     374:	74 9c       	mul	r7, r4
     376:	44 c9       	rjmp	.-3448   	; 0xfffff600 <__eeprom_end+0xff7ef600>
     378:	69 00       	.word	0x0069	; ????
     37a:	a0 06       	cpc	r10, r16
     37c:	74 7c       	andi	r23, 0xC4	; 196
     37e:	36 00       	.word	0x0036	; ????
     380:	a1 08       	sbc	r10, r1
     382:	74 9c       	mul	r7, r4
     384:	1c c8       	rjmp	.-4040   	; 0xfffff3be <__eeprom_end+0xff7ef3be>
     386:	ca 00       	.word	0x00ca	; ????
     388:	a2 08       	sbc	r10, r2
     38a:	74 9c       	mul	r7, r4
     38c:	68 c9       	rjmp	.-3376   	; 0xfffff65e <__eeprom_end+0xff7ef65e>
     38e:	a6 18       	sub	r10, r6
     390:	a3 08       	sbc	r10, r3
     392:	74 ac       	ldd	r7, Z+60	; 0x3c
     394:	9a 54       	subi	r25, 0x4A	; 74
     396:	49 01       	movw	r8, r18
     398:	a4 09       	sbc	r26, r4
     39a:	74 cc       	rjmp	.-1816   	; 0xfffffc84 <__eeprom_end+0xff7efc84>
     39c:	28 91       	.word	0x9128	; ????
     39e:	94 28       	or	r9, r4
     3a0:	04 a5       	ldd	r16, Z+44	; 0x2c
     3a2:	09 74       	andi	r16, 0x49	; 73
     3a4:	8c 24       	eor	r8, r12
     3a6:	8a a6       	std	Y+42, r8	; 0x2a
     3a8:	2c 06       	cpc	r2, r28
     3aa:	a6 08       	sbc	r10, r6
     3ac:	74 9c       	mul	r7, r4
     3ae:	2c 07       	cpc	r18, r28
     3b0:	b2 18       	sub	r11, r2
     3b2:	a7 09       	sbc	r26, r7
     3b4:	74 1c       	adc	r7, r4
     3b6:	53 12       	cpse	r5, r19
     3b8:	69 89       	ldd	r22, Y+17	; 0x11
     3ba:	04 a8       	ldd	r0, Z+52	; 0x34
     3bc:	06 74       	andi	r16, 0x46	; 70
     3be:	8c 24       	eor	r8, r12
     3c0:	67 a9       	ldd	r22, Z+55	; 0x37
     3c2:	0a 74       	andi	r16, 0x4A	; 74
     3c4:	1c 25       	eor	r17, r12
     3c6:	5a 16       	cp	r5, r26
     3c8:	29 51       	subi	r18, 0x19	; 25
     3ca:	00 aa       	std	Z+48, r0	; 0x30
     3cc:	08 74       	andi	r16, 0x48	; 72
     3ce:	1c a5       	ldd	r17, Y+44	; 0x2c
     3d0:	a4 ae       	std	Z+60, r10	; 0x3c
     3d2:	00 ab       	std	Z+48, r16	; 0x30
     3d4:	09 74       	andi	r16, 0x49	; 73
     3d6:	dc 44       	sbci	r29, 0x4C	; 76
     3d8:	89 92       	st	Y+, r8
     3da:	1c 01       	movw	r2, r24
     3dc:	ac 08       	sbc	r10, r12
     3de:	74 7c       	andi	r23, 0xC4	; 196
     3e0:	64 cb       	rjmp	.-2360   	; 0xfffffaaa <__eeprom_end+0xff7efaaa>
     3e2:	21 00       	.word	0x0021	; ????
     3e4:	ad 07       	cpc	r26, r29
     3e6:	74 7c       	andi	r23, 0xC4	; 196
     3e8:	64 87       	std	Z+12, r22	; 0x0c
     3ea:	01 ae       	std	Z+57, r0	; 0x39
     3ec:	09 74       	andi	r16, 0x49	; 73
     3ee:	1c 65       	ori	r17, 0x5C	; 92
     3f0:	58 12       	cpse	r5, r24
     3f2:	1d 02       	muls	r17, r29
     3f4:	af 06       	cpc	r10, r31
     3f6:	74 8c       	ldd	r7, Z+28	; 0x1c
     3f8:	9d 01       	movw	r18, r26
     3fa:	b0 08       	sbc	r11, r0
     3fc:	74 9c       	mul	r7, r4
     3fe:	28 89       	ldd	r18, Y+16	; 0x10
     400:	72 02       	muls	r23, r18
     402:	b1 08       	sbc	r11, r1
     404:	74 9c       	mul	r7, r4
     406:	68 8a       	std	Y+16, r6	; 0x10
     408:	57 00       	.word	0x0057	; ????
     40a:	b2 08       	sbc	r11, r2
     40c:	74 0c       	add	r7, r4
     40e:	2d ca       	rjmp	.-2982   	; 0xfffff86a <__eeprom_end+0xff7ef86a>
     410:	74 0c       	add	r7, r4
     412:	b3 08       	sbc	r11, r3
     414:	74 0c       	add	r7, r4
     416:	2d 0a       	sbc	r2, r29
     418:	a3 1c       	adc	r10, r3
     41a:	b4 06       	cpc	r11, r20
     41c:	74 ac       	ldd	r7, Z+60	; 0x3c
     41e:	3a 11       	cpse	r19, r10
     420:	b5 08       	sbc	r11, r5
     422:	74 cc       	rjmp	.-1816   	; 0xfffffd0c <__eeprom_end+0xff7efd0c>
     424:	a4 17       	cp	r26, r20
     426:	29 03       	fmul	r18, r17
     428:	b6 08       	sbc	r11, r6
     42a:	74 9c       	mul	r7, r4
     42c:	41 59       	subi	r20, 0x91	; 145
     42e:	7a 04       	cpc	r7, r10
     430:	b7 06       	cpc	r11, r23
     432:	74 7c       	andi	r23, 0xC4	; 196
     434:	28 27       	eor	r18, r24
     436:	b8 07       	cpc	r27, r24
     438:	74 7c       	andi	r23, 0xC4	; 196
     43a:	42 14       	cp	r4, r2
     43c:	03 b9       	out	0x03, r16	; 3
     43e:	08 74       	andi	r16, 0x48	; 72
     440:	9c 48       	sbci	r25, 0x8C	; 140
     442:	ab 63       	ori	r26, 0x3B	; 59
     444:	00 ba       	out	0x10, r0	; 16
     446:	08 74       	andi	r16, 0x48	; 72
     448:	9c 28       	or	r9, r12
     44a:	89 e2       	ldi	r24, 0x29	; 41
     44c:	15 bb       	out	0x15, r17	; 21
     44e:	09 74       	andi	r16, 0x49	; 73
     450:	cc 24       	eor	r12, r12
     452:	4a 94       	dec	r4
     454:	1c 02       	muls	r17, r28
     456:	bc 09       	sbc	r27, r12
     458:	74 8c       	ldd	r7, Z+28	; 0x1c
     45a:	ac 98       	cbi	0x15, 4	; 21
     45c:	24 5b       	subi	r18, 0xB4	; 180
     45e:	00 bd       	out	0x20, r16	; 32
     460:	09 74       	andi	r16, 0x49	; 73
     462:	8c ac       	ldd	r8, Y+60	; 0x3c
     464:	a2 45       	sbci	r26, 0x52	; 82
     466:	99 00       	.word	0x0099	; ????
     468:	be 09       	sbc	r27, r14
     46a:	74 0c       	add	r7, r4
     46c:	2d 0a       	sbc	r2, r29
     46e:	13 5b       	subi	r17, 0xB3	; 179
     470:	00 bf       	out	0x30, r16	; 48
     472:	08 74       	andi	r16, 0x48	; 72
     474:	9c 1c       	adc	r9, r12
     476:	88 42       	sbci	r24, 0x28	; 40
     478:	15 c0       	rjmp	.+42     	; 0x4a4 <__LOCK_REGION_LENGTH__+0xa4>
     47a:	09 74       	andi	r16, 0x49	; 73
     47c:	8c 30       	cpi	r24, 0x0C	; 12
     47e:	4a 92       	st	-Y, r4
     480:	a5 0a       	sbc	r10, r21
     482:	c1 08       	sbc	r12, r1
     484:	74 ac       	ldd	r7, Z+60	; 0x3c
     486:	96 64       	ori	r25, 0x46	; 70
     488:	a9 02       	muls	r26, r25
     48a:	c2 09       	sbc	r28, r2
     48c:	74 0c       	add	r7, r4
     48e:	2d 4a       	sbci	r18, 0xAD	; 173
     490:	92 a5       	ldd	r25, Z+42	; 0x2a
     492:	0a c3       	rjmp	.+1556   	; 0xaa8 <__vector_21+0x18>
     494:	09 74       	andi	r16, 0x49	; 73
     496:	1c 53       	subi	r17, 0x3C	; 60
     498:	92 2c       	mov	r9, r2
     49a:	55 00       	.word	0x0055	; ????
     49c:	c4 09       	sbc	r28, r4
     49e:	74 8c       	ldd	r7, Z+28	; 0x1c
     4a0:	24 aa       	std	Z+52, r2	; 0x34
     4a2:	24 4b       	sbci	r18, 0xB4	; 180
     4a4:	15 c5       	rjmp	.+2602   	; 0xed0 <pvPortMalloc+0x22>
     4a6:	09 74       	andi	r16, 0x49	; 73
     4a8:	9c 2c       	mov	r9, r12
     4aa:	4a 92       	st	-Y, r4
     4ac:	a5 0a       	sbc	r10, r21
     4ae:	c6 0a       	sbc	r12, r22
     4b0:	74 9c       	mul	r7, r4
     4b2:	21 49       	sbci	r18, 0x91	; 145
     4b4:	06 a5       	ldd	r16, Z+46	; 0x2e
     4b6:	22 02       	muls	r18, r18
     4b8:	c7 09       	sbc	r28, r7
     4ba:	74 9c       	mul	r7, r4
     4bc:	28 a9       	ldd	r18, Y+48	; 0x30
     4be:	25 51       	subi	r18, 0x15	; 21
     4c0:	0d c8       	rjmp	.-4070   	; 0xfffff4dc <__eeprom_end+0xff7ef4dc>
     4c2:	08 74       	andi	r16, 0x48	; 72
     4c4:	8c 6c       	ori	r24, 0xCC	; 204
     4c6:	91 b2       	in	r9, 0x11	; 17
     4c8:	15 c9       	rjmp	.-3542   	; 0xfffff6f4 <__eeprom_end+0xff7ef6f4>
     4ca:	08 74       	andi	r16, 0x48	; 72
     4cc:	ac 64       	ori	r26, 0x4C	; 76
     4ce:	91 b2       	in	r9, 0x11	; 17
     4d0:	15 ca       	rjmp	.-3030   	; 0xfffff8fc <__eeprom_end+0xff7ef8fc>
     4d2:	08 74       	andi	r16, 0x48	; 72
     4d4:	1c 65       	ori	r17, 0x5C	; 92
     4d6:	91 b2       	in	r9, 0x11	; 17
     4d8:	15 cb       	rjmp	.-2518   	; 0xfffffb04 <__eeprom_end+0xff7efb04>
     4da:	09 74       	andi	r16, 0x49	; 73
     4dc:	8c 24       	eor	r8, r12
     4de:	59 a4       	ldd	r5, Y+41	; 0x29
     4e0:	6c 05       	cpc	r22, r12
     4e2:	cc 08       	sbc	r12, r12
     4e4:	74 8c       	ldd	r7, Z+28	; 0x1c
     4e6:	6c ca       	rjmp	.-2856   	; 0xfffff9c0 <__eeprom_end+0xff7ef9c0>
     4e8:	a2 15       	cp	r26, r2
     4ea:	cd 08       	sbc	r12, r13
     4ec:	74 ac       	ldd	r7, Z+60	; 0x3c
     4ee:	64 ca       	rjmp	.-2872   	; 0xfffff9b8 <__eeprom_end+0xff7ef9b8>
     4f0:	a2 15       	cp	r26, r2
     4f2:	ce 08       	sbc	r12, r14
     4f4:	74 9c       	mul	r7, r4
     4f6:	68 ca       	rjmp	.-2864   	; 0xfffff9c8 <__eeprom_end+0xff7ef9c8>
     4f8:	a2 15       	cp	r26, r2
     4fa:	cf 09       	sbc	r28, r15
     4fc:	74 8c       	ldd	r7, Z+28	; 0x1c
     4fe:	24 ca       	rjmp	.-3000   	; 0xfffff948 <__eeprom_end+0xff7ef948>
     500:	4a 2b       	or	r20, r26
     502:	00 d0       	rcall	.+0      	; 0x504 <__LOCK_REGION_LENGTH__+0x104>
     504:	09 74       	andi	r16, 0x49	; 73
     506:	8c 29       	or	r24, r12
     508:	59 2a       	or	r5, r25
     50a:	43 0a       	sbc	r4, r19
     50c:	d1 09       	sbc	r29, r1
     50e:	74 9c       	mul	r7, r4
     510:	44 49       	sbci	r20, 0x94	; 148
     512:	2e 55       	subi	r18, 0x5E	; 94
     514:	00 d2       	rcall	.+1024   	; 0x916 <__stack+0x17>
     516:	09 74       	andi	r16, 0x49	; 73
     518:	8c 30       	cpi	r24, 0x0C	; 12
     51a:	4a 9a       	sbi	0x09, 2	; 9
     51c:	62 00       	.word	0x0062	; ????
     51e:	d3 07       	cpc	r29, r19
     520:	74 ac       	ldd	r7, Z+60	; 0x3c
     522:	96 a6       	std	Z+46, r9	; 0x2e
     524:	18 d4       	rcall	.+2096   	; 0xd56 <main+0x4a>
     526:	09 74       	andi	r16, 0x49	; 73
     528:	9c 2c       	mov	r9, r12
     52a:	4a 9a       	sbi	0x09, 2	; 9
     52c:	62 00       	.word	0x0062	; ????
     52e:	d5 08       	sbc	r13, r5
     530:	74 9c       	mul	r7, r4
     532:	61 e9       	ldi	r22, 0x91	; 145
     534:	14 03       	mulsu	r17, r20
     536:	d6 09       	sbc	r29, r6
     538:	74 8c       	ldd	r7, Z+28	; 0x1c
     53a:	24 aa       	std	Z+52, r2	; 0x34
     53c:	34 c5       	rjmp	.+2664   	; 0xfa6 <pvPortMalloc+0xf8>
     53e:	00 d7       	rcall	.+3584   	; 0x1340 <xQueueGenericSend+0x70>
     540:	09 74       	andi	r16, 0x49	; 73
     542:	cc 24       	eor	r12, r12
     544:	aa e4       	ldi	r26, 0x4A	; 74
     546:	10 00       	.word	0x0010	; ????
     548:	d8 09       	sbc	r29, r8
     54a:	74 1c       	adc	r7, r4
     54c:	a5 b2       	in	r10, 0x15	; 21
     54e:	54 64       	ori	r21, 0x44	; 68
     550:	00 d9       	rcall	.-3584   	; 0xfffff752 <__eeprom_end+0xff7ef752>
     552:	09 74       	andi	r16, 0x49	; 73
     554:	8c 30       	cpi	r24, 0x0C	; 12
     556:	4a 5a       	subi	r20, 0xAA	; 170
     558:	56 00       	.word	0x0056	; ????
     55a:	da 07       	cpc	r29, r26
     55c:	74 ac       	ldd	r7, Z+60	; 0x3c
     55e:	96 96       	adiw	r26, 0x26	; 38
     560:	15 db       	rcall	.-2518   	; 0xfffffb8c <__eeprom_end+0xff7efb8c>
     562:	08 74       	andi	r16, 0x48	; 72
     564:	9c 38       	cpi	r25, 0x8C	; 140
     566:	69 59       	subi	r22, 0x99	; 153
     568:	01 dc       	rcall	.-2046   	; 0xfffffd6c <__eeprom_end+0xff7efd6c>
     56a:	09 74       	andi	r16, 0x49	; 73
     56c:	8c 24       	eor	r8, r12
     56e:	4d 5a       	subi	r20, 0xAD	; 173
     570:	56 00       	.word	0x0056	; ????
     572:	dd 08       	sbc	r13, r13
     574:	74 ac       	ldd	r7, Z+60	; 0x3c
     576:	34 89       	ldd	r19, Z+20	; 0x14
     578:	b2 18       	sub	r11, r2
     57a:	de 09       	sbc	r29, r14
     57c:	74 8c       	ldd	r7, Z+28	; 0x1c
     57e:	4c 4a       	sbci	r20, 0xAC	; 172
     580:	12 29       	or	r17, r2
     582:	07 df       	rcall	.-498    	; 0x392 <__trampolines_end+0x32a>
     584:	0b 74       	andi	r16, 0x4B	; 75
     586:	9c 28       	or	r9, r12
     588:	49 a4       	ldd	r4, Y+41	; 0x29
     58a:	24 59       	subi	r18, 0x94	; 148
     58c:	32 00       	.word	0x0032	; ????
     58e:	e0 09       	sbc	r30, r0
     590:	74 8c       	ldd	r7, Z+28	; 0x1c
     592:	30 53       	subi	r19, 0x30	; 48
     594:	4a 2a       	or	r4, r26
     596:	00 e1       	ldi	r16, 0x10	; 16
     598:	08 74       	andi	r16, 0x48	; 72
     59a:	ac 9a       	sbi	0x15, 4	; 21
     59c:	52 52       	subi	r21, 0x22	; 34
     59e:	01 e2       	ldi	r16, 0x21	; 33
     5a0:	08 74       	andi	r16, 0x48	; 72
     5a2:	1c 59       	subi	r17, 0x9C	; 156
     5a4:	29 a9       	ldd	r18, Y+49	; 0x31
     5a6:	00 e3       	ldi	r16, 0x30	; 48
     5a8:	09 74       	andi	r16, 0x49	; 73
     5aa:	9c 44       	sbci	r25, 0x4C	; 76
     5ac:	89 94       	.word	0x9489	; ????
     5ae:	92 0a       	sbc	r9, r18
     5b0:	e4 09       	sbc	r30, r4
     5b2:	74 8c       	ldd	r7, Z+28	; 0x1c
     5b4:	24 56       	subi	r18, 0x64	; 100
     5b6:	4a 2a       	or	r4, r26
     5b8:	00 e5       	ldi	r16, 0x50	; 80
     5ba:	09 74       	andi	r16, 0x49	; 73
     5bc:	9c 1c       	adc	r9, r12
     5be:	50 4a       	sbci	r21, 0xA0	; 160
     5c0:	2a 00       	.word	0x002a	; ????
     5c2:	e6 08       	sbc	r14, r6
     5c4:	74 dc       	rcall	.-1816   	; 0xfffffeae <__eeprom_end+0xff7efeae>
     5c6:	21 59       	subi	r18, 0x91	; 145
     5c8:	a2 11       	cpse	r26, r2
     5ca:	e7 09       	sbc	r30, r7
     5cc:	74 dc       	rcall	.-1816   	; 0xfffffeb6 <__eeprom_end+0xff7efeb6>
     5ce:	28 29       	or	r18, r8
     5d0:	4a 11       	cpse	r20, r10
     5d2:	00 e8       	ldi	r16, 0x80	; 128
     5d4:	09 74       	andi	r16, 0x49	; 73
     5d6:	8c 30       	cpi	r24, 0x0C	; 12
     5d8:	4a 12       	cpse	r4, r26
     5da:	4d 05       	cpc	r20, r13
     5dc:	e9 08       	sbc	r14, r9
     5de:	74 ac       	ldd	r7, Z+60	; 0x3c
     5e0:	96 44       	sbci	r25, 0x46	; 70
     5e2:	53 01       	movw	r10, r6
     5e4:	ea 09       	sbc	r30, r10
     5e6:	74 0c       	add	r7, r4
     5e8:	2d 4a       	sbci	r18, 0xAD	; 173
     5ea:	12 4d       	sbci	r17, 0xD2	; 210
     5ec:	05 eb       	ldi	r16, 0xB5	; 181
     5ee:	09 74       	andi	r16, 0x49	; 73
     5f0:	8c 24       	eor	r8, r12
     5f2:	aa 24       	eor	r10, r10
     5f4:	9a 0a       	sbc	r9, r26
     5f6:	ec 08       	sbc	r14, r12
     5f8:	74 8c       	ldd	r7, Z+28	; 0x1c
     5fa:	30 2b       	or	r19, r16
     5fc:	ad 00       	.word	0x00ad	; ????
     5fe:	ed 08       	sbc	r14, r13
     600:	74 ac       	ldd	r7, Z+60	; 0x3c
     602:	44 2b       	or	r20, r20
     604:	ad 00       	.word	0x00ad	; ????
     606:	ee 09       	sbc	r30, r14
     608:	74 9c       	mul	r7, r4
     60a:	28 89       	ldd	r18, Y+16	; 0x10
     60c:	b2 68       	ori	r27, 0x82	; 130
     60e:	05 ef       	ldi	r16, 0xF5	; 245
     610:	08 74       	andi	r16, 0x48	; 72
     612:	8c 24       	eor	r8, r12
     614:	d5 a2       	std	Z+37, r13	; 0x25
     616:	15 f0       	brhs	.+4      	; 0x61c <__LOCK_REGION_LENGTH__+0x21c>
     618:	09 74       	andi	r16, 0x49	; 73
     61a:	8c 24       	eor	r8, r12
     61c:	ca 94       	dec	r12
     61e:	52 0c       	add	r5, r2
     620:	f1 09       	sbc	r31, r1
     622:	74 9c       	mul	r7, r4
     624:	44 49       	sbci	r20, 0x94	; 148
     626:	a4 a4       	ldd	r10, Z+44	; 0x2c
     628:	15 f2       	brhs	.-124    	; 0x5ae <__LOCK_REGION_LENGTH__+0x1ae>
     62a:	09 74       	andi	r16, 0x49	; 73
     62c:	8c 30       	cpi	r24, 0x0C	; 12
     62e:	8b 92       	.word	0x928b	; ????
     630:	28 06       	cpc	r2, r24
     632:	f3 09       	sbc	r31, r3
     634:	74 ac       	ldd	r7, Z+60	; 0x3c
     636:	5a 94       	dec	r5
     638:	44 31       	cpi	r20, 0x14	; 20
     63a:	00 f4       	brcc	.+0      	; 0x63c <__LOCK_REGION_LENGTH__+0x23c>
     63c:	09 74       	andi	r16, 0x49	; 73
     63e:	9c 1c       	adc	r9, r12
     640:	88 92       	.word	0x9288	; ????
     642:	28 06       	cpc	r2, r24
     644:	f5 08       	sbc	r15, r5
     646:	74 8c       	ldd	r7, Z+28	; 0x1c
     648:	39 4a       	sbci	r19, 0xA9	; 169
     64a:	a2 18       	sub	r10, r2
     64c:	f6 09       	sbc	r31, r6
     64e:	74 8c       	ldd	r7, Z+28	; 0x1c
     650:	24 8e       	std	Z+28, r2	; 0x1c
     652:	92 28       	or	r9, r2
     654:	06 f7       	brtc	.-64     	; 0x616 <__LOCK_REGION_LENGTH__+0x216>
     656:	07 74       	andi	r16, 0x47	; 71
     658:	9c 78       	andi	r25, 0x8C	; 140
     65a:	8e 01       	movw	r16, r28
     65c:	f8 07       	cpc	r31, r24
     65e:	74 5c       	subi	r23, 0xC4	; 196
     660:	a5 8b       	std	Z+21, r26	; 0x15
     662:	0c f9       	.word	0xf90c	; ????
     664:	09 74       	andi	r16, 0x49	; 73
     666:	8c 30       	cpi	r24, 0x0C	; 12
     668:	4a 9a       	sbi	0x09, 2	; 9
     66a:	54 00       	.word	0x0054	; ????
     66c:	fa 07       	cpc	r31, r26
     66e:	74 ac       	ldd	r7, Z+60	; 0x3c
     670:	96 26       	eor	r9, r22
     672:	15 fb       	bst	r17, 5
     674:	08 74       	andi	r16, 0x48	; 72
     676:	9c 38       	cpi	r25, 0x8C	; 140
     678:	69 52       	subi	r22, 0x29	; 41
     67a:	01 fc       	sbrc	r0, 1
     67c:	09 74       	andi	r16, 0x49	; 73
     67e:	8c 24       	eor	r8, r12
     680:	4d 9a       	sbi	0x09, 5	; 9
     682:	54 00       	.word	0x0054	; ????
     684:	fd 09       	sbc	r31, r13
     686:	74 ac       	ldd	r7, Z+60	; 0x3c
     688:	96 64       	ori	r25, 0x46	; 70
     68a:	4b 24       	eor	r4, r11
     68c:	00 fe       	sbrs	r0, 0
     68e:	0a 74       	andi	r16, 0x4A	; 74
     690:	8c 2c       	mov	r8, r12
     692:	93 92       	.word	0x9293	; ????
     694:	44 ca       	rjmp	.-2936   	; 0xfffffb1e <__eeprom_end+0xff7efb1e>
     696:	00 ff       	sbrs	r16, 0
     698:	0a 74       	andi	r16, 0x4A	; 74
     69a:	8c 24       	eor	r8, r12
     69c:	4d 92       	st	X+, r4
     69e:	2d 91       	ld	r18, X+
     6a0:	00 00       	nop
     6a2:	00 00       	nop
     6a4:	04 ff       	sbrs	r16, 4
     6a6:	ff 00       	.word	0x00ff	; ????
	...

000006aa <__ctors_end>:
     6aa:	11 24       	eor	r1, r1
     6ac:	1f be       	out	0x3f, r1	; 63
     6ae:	cf ef       	ldi	r28, 0xFF	; 255
     6b0:	d8 e0       	ldi	r29, 0x08	; 8
     6b2:	de bf       	out	0x3e, r29	; 62
     6b4:	cd bf       	out	0x3d, r28	; 61

000006b6 <__do_copy_data>:
     6b6:	11 e0       	ldi	r17, 0x01	; 1
     6b8:	a0 e0       	ldi	r26, 0x00	; 0
     6ba:	b1 e0       	ldi	r27, 0x01	; 1
     6bc:	e4 e0       	ldi	r30, 0x04	; 4
     6be:	ff e4       	ldi	r31, 0x4F	; 79
     6c0:	02 c0       	rjmp	.+4      	; 0x6c6 <__do_copy_data+0x10>
     6c2:	05 90       	lpm	r0, Z+
     6c4:	0d 92       	st	X+, r0
     6c6:	a2 36       	cpi	r26, 0x62	; 98
     6c8:	b1 07       	cpc	r27, r17
     6ca:	d9 f7       	brne	.-10     	; 0x6c2 <__do_copy_data+0xc>

000006cc <__do_clear_bss>:
     6cc:	28 e0       	ldi	r18, 0x08	; 8
     6ce:	a2 e6       	ldi	r26, 0x62	; 98
     6d0:	b1 e0       	ldi	r27, 0x01	; 1
     6d2:	01 c0       	rjmp	.+2      	; 0x6d6 <.do_clear_bss_start>

000006d4 <.do_clear_bss_loop>:
     6d4:	1d 92       	st	X+, r1

000006d6 <.do_clear_bss_start>:
     6d6:	a6 35       	cpi	r26, 0x56	; 86
     6d8:	b2 07       	cpc	r27, r18
     6da:	e1 f7       	brne	.-8      	; 0x6d4 <.do_clear_bss_loop>
     6dc:	0e 94 86 06 	call	0xd0c	; 0xd0c <main>
     6e0:	0c 94 80 27 	jmp	0x4f00	; 0x4f00 <_exit>

000006e4 <__bad_interrupt>:
     6e4:	0c 94 00 00 	jmp	0	; 0x0 <__vectors>

000006e8 <task_adc>:
     6e8:	cf 93       	push	r28
     6ea:	df 93       	push	r29
     6ec:	00 d0       	rcall	.+0      	; 0x6ee <task_adc+0x6>
     6ee:	00 d0       	rcall	.+0      	; 0x6f0 <task_adc+0x8>
     6f0:	00 d0       	rcall	.+0      	; 0x6f2 <task_adc+0xa>
     6f2:	cd b7       	in	r28, 0x3d	; 61
     6f4:	de b7       	in	r29, 0x3e	; 62
     6f6:	8c 01       	movw	r16, r24
     6f8:	89 2b       	or	r24, r25
     6fa:	21 f4       	brne	.+8      	; 0x704 <task_adc+0x1c>
     6fc:	80 e0       	ldi	r24, 0x00	; 0
     6fe:	90 e0       	ldi	r25, 0x00	; 0
     700:	0e 94 2e 11 	call	0x225c	; 0x225c <vTaskDelete>
     704:	82 e0       	ldi	r24, 0x02	; 2
     706:	f8 2e       	mov	r15, r24
     708:	40 e0       	ldi	r20, 0x00	; 0
     70a:	65 e0       	ldi	r22, 0x05	; 5
     70c:	81 e0       	ldi	r24, 0x01	; 1
     70e:	0e 94 17 05 	call	0xa2e	; 0xa2e <adc_start_single>
     712:	0e 94 3e 05 	call	0xa7c	; 0xa7c <adc_is_finished>
     716:	88 23       	and	r24, r24
     718:	e1 f3       	breq	.-8      	; 0x712 <task_adc+0x2a>
     71a:	0e 94 41 05 	call	0xa82	; 0xa82 <adc_get_value>
     71e:	9a 83       	std	Y+2, r25	; 0x02
     720:	89 83       	std	Y+1, r24	; 0x01
     722:	41 e0       	ldi	r20, 0x01	; 1
     724:	65 e0       	ldi	r22, 0x05	; 5
     726:	81 e0       	ldi	r24, 0x01	; 1
     728:	0e 94 17 05 	call	0xa2e	; 0xa2e <adc_start_single>
     72c:	0e 94 3e 05 	call	0xa7c	; 0xa7c <adc_is_finished>
     730:	88 23       	and	r24, r24
     732:	e1 f3       	breq	.-8      	; 0x72c <task_adc+0x44>
     734:	0e 94 41 05 	call	0xa82	; 0xa82 <adc_get_value>
     738:	9c 83       	std	Y+4, r25	; 0x04
     73a:	8b 83       	std	Y+3, r24	; 0x03
     73c:	4e e0       	ldi	r20, 0x0E	; 14
     73e:	60 e0       	ldi	r22, 0x00	; 0
     740:	81 e0       	ldi	r24, 0x01	; 1
     742:	0e 94 17 05 	call	0xa2e	; 0xa2e <adc_start_single>
     746:	81 e0       	ldi	r24, 0x01	; 1
     748:	90 e0       	ldi	r25, 0x00	; 0
     74a:	0e 94 a7 13 	call	0x274e	; 0x274e <vTaskDelay>
     74e:	4e e0       	ldi	r20, 0x0E	; 14
     750:	65 e0       	ldi	r22, 0x05	; 5
     752:	81 e0       	ldi	r24, 0x01	; 1
     754:	0e 94 17 05 	call	0xa2e	; 0xa2e <adc_start_single>
     758:	0e 94 3e 05 	call	0xa7c	; 0xa7c <adc_is_finished>
     75c:	88 23       	and	r24, r24
     75e:	e1 f3       	breq	.-8      	; 0x758 <task_adc+0x70>
     760:	0e 94 41 05 	call	0xa82	; 0xa82 <adc_get_value>
     764:	9e 83       	std	Y+6, r25	; 0x06
     766:	8d 83       	std	Y+5, r24	; 0x05
     768:	89 81       	ldd	r24, Y+1	; 0x01
     76a:	9a 81       	ldd	r25, Y+2	; 0x02
     76c:	81 32       	cpi	r24, 0x21	; 33
     76e:	93 40       	sbci	r25, 0x03	; 3
     770:	10 f0       	brcs	.+4      	; 0x776 <task_adc+0x8e>
     772:	f8 01       	movw	r30, r16
     774:	f3 82       	std	Z+3, r15	; 0x03
     776:	8b 81       	ldd	r24, Y+3	; 0x03
     778:	9c 81       	ldd	r25, Y+4	; 0x04
     77a:	81 32       	cpi	r24, 0x21	; 33
     77c:	93 40       	sbci	r25, 0x03	; 3
     77e:	10 f0       	brcs	.+4      	; 0x784 <task_adc+0x9c>
     780:	f8 01       	movw	r30, r16
     782:	13 82       	std	Z+3, r1	; 0x03
     784:	21 e0       	ldi	r18, 0x01	; 1
     786:	41 e0       	ldi	r20, 0x01	; 1
     788:	50 e0       	ldi	r21, 0x00	; 0
     78a:	be 01       	movw	r22, r28
     78c:	6f 5f       	subi	r22, 0xFF	; 255
     78e:	7f 4f       	sbci	r23, 0xFF	; 255
     790:	f8 01       	movw	r30, r16
     792:	80 81       	ld	r24, Z
     794:	91 81       	ldd	r25, Z+1	; 0x01
     796:	0e 94 68 09 	call	0x12d0	; 0x12d0 <xQueueGenericSend>
     79a:	81 e0       	ldi	r24, 0x01	; 1
     79c:	90 e0       	ldi	r25, 0x00	; 0
     79e:	0e 94 a7 13 	call	0x274e	; 0x274e <vTaskDelay>
     7a2:	b2 cf       	rjmp	.-156    	; 0x708 <task_adc+0x20>

000007a4 <task_gui>:
     7a4:	cf 93       	push	r28
     7a6:	df 93       	push	r29
     7a8:	cd b7       	in	r28, 0x3d	; 61
     7aa:	de b7       	in	r29, 0x3e	; 62
     7ac:	c7 58       	subi	r28, 0x87	; 135
     7ae:	d1 09       	sbc	r29, r1
     7b0:	0f b6       	in	r0, 0x3f	; 63
     7b2:	f8 94       	cli
     7b4:	de bf       	out	0x3e, r29	; 62
     7b6:	0f be       	out	0x3f, r0	; 63
     7b8:	cd bf       	out	0x3d, r28	; 61
     7ba:	5c 01       	movw	r10, r24
     7bc:	89 2b       	or	r24, r25
     7be:	21 f4       	brne	.+8      	; 0x7c8 <task_gui+0x24>
     7c0:	80 e0       	ldi	r24, 0x00	; 0
     7c2:	90 e0       	ldi	r25, 0x00	; 0
     7c4:	0e 94 2e 11 	call	0x225c	; 0x225c <vTaskDelete>
     7c8:	2c eb       	ldi	r18, 0xBC	; 188
     7ca:	33 e2       	ldi	r19, 0x23	; 35
     7cc:	49 ee       	ldi	r20, 0xE9	; 233
     7ce:	52 e2       	ldi	r21, 0x22	; 34
     7d0:	64 e4       	ldi	r22, 0x44	; 68
     7d2:	71 e0       	ldi	r23, 0x01	; 1
     7d4:	ce 01       	movw	r24, r28
     7d6:	01 96       	adiw	r24, 0x01	; 1
     7d8:	0e 94 e0 18 	call	0x31c0	; 0x31c0 <u8g2_Setup_ise97002ks_gu128x64_1>
     7dc:	ce 01       	movw	r24, r28
     7de:	01 96       	adiw	r24, 0x01	; 1
     7e0:	0e 94 9a 21 	call	0x4334	; 0x4334 <u8x8_InitDisplay>
     7e4:	60 e0       	ldi	r22, 0x00	; 0
     7e6:	ce 01       	movw	r24, r28
     7e8:	01 96       	adiw	r24, 0x01	; 1
     7ea:	0e 94 a4 21 	call	0x4348	; 0x4348 <u8x8_SetContrast>
     7ee:	58 ee       	ldi	r21, 0xE8	; 232
     7f0:	85 2e       	mov	r8, r21
     7f2:	53 e0       	ldi	r21, 0x03	; 3
     7f4:	95 2e       	mov	r9, r21
     7f6:	62 e0       	ldi	r22, 0x02	; 2
     7f8:	c6 2e       	mov	r12, r22
     7fa:	61 e0       	ldi	r22, 0x01	; 1
     7fc:	d6 2e       	mov	r13, r22
     7fe:	7a e0       	ldi	r23, 0x0A	; 10
     800:	27 2e       	mov	r2, r23
     802:	e6 e6       	ldi	r30, 0x66	; 102
     804:	ee 2e       	mov	r14, r30
     806:	f1 2c       	mov	r15, r1
     808:	ec 0e       	add	r14, r28
     80a:	fd 1e       	adc	r15, r29
     80c:	80 e1       	ldi	r24, 0x10	; 16
     80e:	e8 0e       	add	r14, r24
     810:	f1 1c       	adc	r15, r1
     812:	f2 e0       	ldi	r31, 0x02	; 2
     814:	3f 2e       	mov	r3, r31
     816:	aa e4       	ldi	r26, 0x4A	; 74
     818:	4a 2e       	mov	r4, r26
     81a:	ad e2       	ldi	r26, 0x2D	; 45
     81c:	5a 2e       	mov	r5, r26
     81e:	61 2c       	mov	r6, r1
     820:	71 2c       	mov	r7, r1
     822:	1f e3       	ldi	r17, 0x3F	; 63
     824:	0e 94 f9 13 	call	0x27f2	; 0x27f2 <xTaskGetTickCount>
     828:	9c 01       	movw	r18, r24
     82a:	ca 57       	subi	r28, 0x7A	; 122
     82c:	df 4f       	sbci	r29, 0xFF	; 255
     82e:	88 81       	ld	r24, Y
     830:	99 81       	ldd	r25, Y+1	; 0x01
     832:	c6 58       	subi	r28, 0x86	; 134
     834:	d0 40       	sbci	r29, 0x00	; 0
     836:	b9 01       	movw	r22, r18
     838:	68 1b       	sub	r22, r24
     83a:	79 0b       	sbc	r23, r25
     83c:	c4 01       	movw	r24, r8
     83e:	0e 94 14 24 	call	0x4828	; 0x4828 <__udivmodhi4>
     842:	ca 57       	subi	r28, 0x7A	; 122
     844:	df 4f       	sbci	r29, 0xFF	; 255
     846:	39 83       	std	Y+1, r19	; 0x01
     848:	28 83       	st	Y, r18
     84a:	c6 58       	subi	r28, 0x86	; 134
     84c:	d0 40       	sbci	r29, 0x00	; 0
     84e:	77 27       	eor	r23, r23
     850:	7f 93       	push	r23
     852:	6f 93       	push	r22
     854:	df 92       	push	r13
     856:	cf 92       	push	r12
     858:	1f 92       	push	r1
     85a:	2f 92       	push	r2
     85c:	ff 92       	push	r15
     85e:	ef 92       	push	r14
     860:	0e 94 88 24 	call	0x4910	; 0x4910 <snprintf>
     864:	41 e0       	ldi	r20, 0x01	; 1
     866:	50 e0       	ldi	r21, 0x00	; 0
     868:	be 01       	movw	r22, r28
     86a:	60 58       	subi	r22, 0x80	; 128
     86c:	7f 4f       	sbci	r23, 0xFF	; 255
     86e:	f5 01       	movw	r30, r10
     870:	80 81       	ld	r24, Z
     872:	91 81       	ldd	r25, Z+1	; 0x01
     874:	0e 94 03 0d 	call	0x1a06	; 0x1a06 <xQueuePeek>
     878:	c0 58       	subi	r28, 0x80	; 128
     87a:	df 4f       	sbci	r29, 0xFF	; 255
     87c:	88 81       	ld	r24, Y
     87e:	99 81       	ldd	r25, Y+1	; 0x01
     880:	c0 58       	subi	r28, 0x80	; 128
     882:	d0 40       	sbci	r29, 0x00	; 0
     884:	96 95       	lsr	r25
     886:	87 95       	ror	r24
     888:	92 95       	swap	r25
     88a:	82 95       	swap	r24
     88c:	8f 70       	andi	r24, 0x0F	; 15
     88e:	89 27       	eor	r24, r25
     890:	9f 70       	andi	r25, 0x0F	; 15
     892:	89 27       	eor	r24, r25
     894:	98 e3       	ldi	r25, 0x38	; 56
     896:	98 0f       	add	r25, r24
     898:	a7 96       	adiw	r28, 0x27	; 39
     89a:	9f af       	std	Y+63, r25	; 0x3f
     89c:	a7 97       	sbiw	r28, 0x27	; 39
     89e:	ce 57       	subi	r28, 0x7E	; 126
     8a0:	df 4f       	sbci	r29, 0xFF	; 255
     8a2:	28 81       	ld	r18, Y
     8a4:	39 81       	ldd	r19, Y+1	; 0x01
     8a6:	c2 58       	subi	r28, 0x82	; 130
     8a8:	d0 40       	sbci	r29, 0x00	; 0
     8aa:	36 95       	lsr	r19
     8ac:	27 95       	ror	r18
     8ae:	32 95       	swap	r19
     8b0:	22 95       	swap	r18
     8b2:	2f 70       	andi	r18, 0x0F	; 15
     8b4:	23 27       	eor	r18, r19
     8b6:	3f 70       	andi	r19, 0x0F	; 15
     8b8:	23 27       	eor	r18, r19
     8ba:	9a e0       	ldi	r25, 0x0A	; 10
     8bc:	92 0f       	add	r25, r18
     8be:	a8 96       	adiw	r28, 0x28	; 40
     8c0:	9f af       	std	Y+63, r25	; 0x3f
     8c2:	a8 97       	sbiw	r28, 0x28	; 40
     8c4:	30 e4       	ldi	r19, 0x40	; 64
     8c6:	38 0f       	add	r19, r24
     8c8:	a9 96       	adiw	r28, 0x29	; 41
     8ca:	3f af       	std	Y+63, r19	; 0x3f
     8cc:	a9 97       	sbiw	r28, 0x29	; 41
     8ce:	aa 96       	adiw	r28, 0x2a	; 42
     8d0:	9f af       	std	Y+63, r25	; 0x3f
     8d2:	aa 97       	sbiw	r28, 0x2a	; 42
     8d4:	84 5c       	subi	r24, 0xC4	; 196
     8d6:	ab 96       	adiw	r28, 0x2b	; 43
     8d8:	8f af       	std	Y+63, r24	; 0x3f
     8da:	ab 97       	sbiw	r28, 0x2b	; 43
     8dc:	36 e0       	ldi	r19, 0x06	; 6
     8de:	32 0f       	add	r19, r18
     8e0:	ac 96       	adiw	r28, 0x2c	; 44
     8e2:	3f af       	std	Y+63, r19	; 0x3f
     8e4:	ac 97       	sbiw	r28, 0x2c	; 44
     8e6:	ad 96       	adiw	r28, 0x2d	; 45
     8e8:	8f af       	std	Y+63, r24	; 0x3f
     8ea:	ad 97       	sbiw	r28, 0x2d	; 45
     8ec:	22 5f       	subi	r18, 0xF2	; 242
     8ee:	ae 96       	adiw	r28, 0x2e	; 46
     8f0:	2f af       	std	Y+63, r18	; 0x3f
     8f2:	ae 97       	sbiw	r28, 0x2e	; 46
     8f4:	af 96       	adiw	r28, 0x2f	; 47
     8f6:	8f af       	std	Y+63, r24	; 0x3f
     8f8:	af 97       	sbiw	r28, 0x2f	; 47
     8fa:	e0 96       	adiw	r28, 0x30	; 48
     8fc:	9f af       	std	Y+63, r25	; 0x3f
     8fe:	e0 97       	sbiw	r28, 0x30	; 48
     900:	e1 96       	adiw	r28, 0x31	; 49
     902:	3f ae       	std	Y+63, r3	; 0x3f
     904:	e1 97       	sbiw	r28, 0x31	; 49
     906:	ff e0       	ldi	r31, 0x0F	; 15
     908:	e2 96       	adiw	r28, 0x32	; 50
     90a:	ff af       	std	Y+63, r31	; 0x3f
     90c:	e2 97       	sbiw	r28, 0x32	; 50
     90e:	84 e0       	ldi	r24, 0x04	; 4
     910:	e5 96       	adiw	r28, 0x35	; 53
     912:	8f af       	std	Y+63, r24	; 0x3f
     914:	e5 97       	sbiw	r28, 0x35	; 53
     916:	cc 57       	subi	r28, 0x7C	; 124
     918:	df 4f       	sbci	r29, 0xFF	; 255
     91a:	28 81       	ld	r18, Y
     91c:	39 81       	ldd	r19, Y+1	; 0x01
     91e:	c4 58       	subi	r28, 0x84	; 132
     920:	d0 40       	sbci	r29, 0x00	; 0
     922:	40 e0       	ldi	r20, 0x00	; 0
     924:	50 e0       	ldi	r21, 0x00	; 0
     926:	c3 01       	movw	r24, r6
     928:	b2 01       	movw	r22, r4
     92a:	0e 94 4a 24 	call	0x4894	; 0x4894 <__divmodsi4>
     92e:	e6 96       	adiw	r28, 0x36	; 54
     930:	2f af       	std	Y+63, r18	; 0x3f
     932:	e6 97       	sbiw	r28, 0x36	; 54
     934:	9b e7       	ldi	r25, 0x7B	; 123
     936:	e3 96       	adiw	r28, 0x33	; 51
     938:	9f af       	std	Y+63, r25	; 0x3f
     93a:	e3 97       	sbiw	r28, 0x33	; 51
     93c:	81 2f       	mov	r24, r17
     93e:	82 1b       	sub	r24, r18
     940:	e4 96       	adiw	r28, 0x34	; 52
     942:	8f af       	std	Y+63, r24	; 0x3f
     944:	e4 97       	sbiw	r28, 0x34	; 52
     946:	ce 01       	movw	r24, r28
     948:	01 96       	adiw	r24, 0x01	; 1
     94a:	0e 94 d5 17 	call	0x2faa	; 0x2faa <u8g2_FirstPage>
     94e:	0f b6       	in	r0, 0x3f	; 63
     950:	f8 94       	cli
     952:	de bf       	out	0x3e, r29	; 62
     954:	0f be       	out	0x3f, r0	; 63
     956:	cd bf       	out	0x3d, r28	; 61
     958:	aa 96       	adiw	r28, 0x2a	; 42
     95a:	0f ad       	ldd	r16, Y+63	; 0x3f
     95c:	aa 97       	sbiw	r28, 0x2a	; 42
     95e:	a9 96       	adiw	r28, 0x29	; 41
     960:	2f ad       	ldd	r18, Y+63	; 0x3f
     962:	a9 97       	sbiw	r28, 0x29	; 41
     964:	a8 96       	adiw	r28, 0x28	; 40
     966:	4f ad       	ldd	r20, Y+63	; 0x3f
     968:	a8 97       	sbiw	r28, 0x28	; 40
     96a:	a7 96       	adiw	r28, 0x27	; 39
     96c:	6f ad       	ldd	r22, Y+63	; 0x3f
     96e:	a7 97       	sbiw	r28, 0x27	; 39
     970:	ce 01       	movw	r24, r28
     972:	01 96       	adiw	r24, 0x01	; 1
     974:	0e 94 f0 1e 	call	0x3de0	; 0x3de0 <u8g2_DrawLine>
     978:	ae 96       	adiw	r28, 0x2e	; 46
     97a:	0f ad       	ldd	r16, Y+63	; 0x3f
     97c:	ae 97       	sbiw	r28, 0x2e	; 46
     97e:	ad 96       	adiw	r28, 0x2d	; 45
     980:	2f ad       	ldd	r18, Y+63	; 0x3f
     982:	ad 97       	sbiw	r28, 0x2d	; 45
     984:	ac 96       	adiw	r28, 0x2c	; 44
     986:	4f ad       	ldd	r20, Y+63	; 0x3f
     988:	ac 97       	sbiw	r28, 0x2c	; 44
     98a:	ab 96       	adiw	r28, 0x2b	; 43
     98c:	6f ad       	ldd	r22, Y+63	; 0x3f
     98e:	ab 97       	sbiw	r28, 0x2b	; 43
     990:	ce 01       	movw	r24, r28
     992:	01 96       	adiw	r24, 0x01	; 1
     994:	0e 94 f0 1e 	call	0x3de0	; 0x3de0 <u8g2_DrawLine>
     998:	e2 96       	adiw	r28, 0x32	; 50
     99a:	0f ad       	ldd	r16, Y+63	; 0x3f
     99c:	e2 97       	sbiw	r28, 0x32	; 50
     99e:	e1 96       	adiw	r28, 0x31	; 49
     9a0:	2f ad       	ldd	r18, Y+63	; 0x3f
     9a2:	e1 97       	sbiw	r28, 0x31	; 49
     9a4:	e0 96       	adiw	r28, 0x30	; 48
     9a6:	4f ad       	ldd	r20, Y+63	; 0x3f
     9a8:	e0 97       	sbiw	r28, 0x30	; 48
     9aa:	af 96       	adiw	r28, 0x2f	; 47
     9ac:	6f ad       	ldd	r22, Y+63	; 0x3f
     9ae:	af 97       	sbiw	r28, 0x2f	; 47
     9b0:	ce 01       	movw	r24, r28
     9b2:	01 96       	adiw	r24, 0x01	; 1
     9b4:	0e 94 89 18 	call	0x3112	; 0x3112 <u8g2_DrawCircle>
     9b8:	00 e2       	ldi	r16, 0x20	; 32
     9ba:	20 e2       	ldi	r18, 0x20	; 32
     9bc:	4a e0       	ldi	r20, 0x0A	; 10
     9be:	6c e3       	ldi	r22, 0x3C	; 60
     9c0:	ce 01       	movw	r24, r28
     9c2:	01 96       	adiw	r24, 0x01	; 1
     9c4:	0e 94 33 17 	call	0x2e66	; 0x2e66 <u8g2_DrawFrame>
     9c8:	00 e4       	ldi	r16, 0x40	; 64
     9ca:	26 e0       	ldi	r18, 0x06	; 6
     9cc:	40 e0       	ldi	r20, 0x00	; 0
     9ce:	6a e7       	ldi	r22, 0x7A	; 122
     9d0:	ce 01       	movw	r24, r28
     9d2:	01 96       	adiw	r24, 0x01	; 1
     9d4:	0e 94 33 17 	call	0x2e66	; 0x2e66 <u8g2_DrawFrame>
     9d8:	e6 96       	adiw	r28, 0x36	; 54
     9da:	0f ad       	ldd	r16, Y+63	; 0x3f
     9dc:	e6 97       	sbiw	r28, 0x36	; 54
     9de:	e5 96       	adiw	r28, 0x35	; 53
     9e0:	2f ad       	ldd	r18, Y+63	; 0x3f
     9e2:	e5 97       	sbiw	r28, 0x35	; 53
     9e4:	e4 96       	adiw	r28, 0x34	; 52
     9e6:	4f ad       	ldd	r20, Y+63	; 0x3f
     9e8:	e4 97       	sbiw	r28, 0x34	; 52
     9ea:	e3 96       	adiw	r28, 0x33	; 51
     9ec:	6f ad       	ldd	r22, Y+63	; 0x3f
     9ee:	e3 97       	sbiw	r28, 0x33	; 51
     9f0:	ce 01       	movw	r24, r28
     9f2:	01 96       	adiw	r24, 0x01	; 1
     9f4:	0e 94 0b 17 	call	0x2e16	; 0x2e16 <u8g2_DrawBox>
     9f8:	68 e6       	ldi	r22, 0x68	; 104
     9fa:	70 e0       	ldi	r23, 0x00	; 0
     9fc:	ce 01       	movw	r24, r28
     9fe:	01 96       	adiw	r24, 0x01	; 1
     a00:	0e 94 4f 1d 	call	0x3a9e	; 0x3a9e <u8g2_SetFont>
     a04:	97 01       	movw	r18, r14
     a06:	45 e0       	ldi	r20, 0x05	; 5
     a08:	60 e0       	ldi	r22, 0x00	; 0
     a0a:	ce 01       	movw	r24, r28
     a0c:	01 96       	adiw	r24, 0x01	; 1
     a0e:	0e 94 40 1d 	call	0x3a80	; 0x3a80 <u8g2_DrawStr>
     a12:	ce 01       	movw	r24, r28
     a14:	01 96       	adiw	r24, 0x01	; 1
     a16:	0e 94 f7 17 	call	0x2fee	; 0x2fee <u8g2_NextPage>
     a1a:	81 11       	cpse	r24, r1
     a1c:	9d cf       	rjmp	.-198    	; 0x958 <__stack+0x59>
     a1e:	61 e0       	ldi	r22, 0x01	; 1
     a20:	70 e0       	ldi	r23, 0x00	; 0
     a22:	ce 01       	movw	r24, r28
     a24:	8a 57       	subi	r24, 0x7A	; 122
     a26:	9f 4f       	sbci	r25, 0xFF	; 255
     a28:	0e 94 36 13 	call	0x266c	; 0x266c <vTaskDelayUntil>
     a2c:	fb ce       	rjmp	.-522    	; 0x824 <task_gui+0x80>

00000a2e <adc_start_single>:
     a2e:	0f b6       	in	r0, 0x3f	; 63
     a30:	f8 94       	cli
     a32:	0f 92       	push	r0
     a34:	90 91 7a 00 	lds	r25, 0x007A	; 0x80007a <__DATA_REGION_ORIGIN__+0x1a>
     a38:	96 ff       	sbrs	r25, 6
     a3a:	05 c0       	rjmp	.+10     	; 0xa46 <adc_start_single+0x18>
     a3c:	90 91 7a 00 	lds	r25, 0x007A	; 0x80007a <__DATA_REGION_ORIGIN__+0x1a>
     a40:	9f 77       	andi	r25, 0x7F	; 127
     a42:	90 93 7a 00 	sts	0x007A, r25	; 0x80007a <__DATA_REGION_ORIGIN__+0x1a>
     a46:	20 e4       	ldi	r18, 0x40	; 64
     a48:	82 9f       	mul	r24, r18
     a4a:	c0 01       	movw	r24, r0
     a4c:	11 24       	eor	r1, r1
     a4e:	94 2f       	mov	r25, r20
     a50:	9f 70       	andi	r25, 0x0F	; 15
     a52:	89 2b       	or	r24, r25
     a54:	80 93 7c 00 	sts	0x007C, r24	; 0x80007c <__DATA_REGION_ORIGIN__+0x1c>
     a58:	81 e0       	ldi	r24, 0x01	; 1
     a5a:	90 e0       	ldi	r25, 0x00	; 0
     a5c:	01 c0       	rjmp	.+2      	; 0xa60 <adc_start_single+0x32>
     a5e:	88 0f       	add	r24, r24
     a60:	4a 95       	dec	r20
     a62:	ea f7       	brpl	.-6      	; 0xa5e <adc_start_single+0x30>
     a64:	8f 73       	andi	r24, 0x3F	; 63
     a66:	80 93 7e 00 	sts	0x007E, r24	; 0x80007e <__DATA_REGION_ORIGIN__+0x1e>
     a6a:	67 70       	andi	r22, 0x07	; 7
     a6c:	68 6c       	ori	r22, 0xC8	; 200
     a6e:	60 93 7a 00 	sts	0x007A, r22	; 0x80007a <__DATA_REGION_ORIGIN__+0x1a>
     a72:	10 92 62 01 	sts	0x0162, r1	; 0x800162 <__data_end>
     a76:	0f 90       	pop	r0
     a78:	0f be       	out	0x3f, r0	; 63
     a7a:	08 95       	ret

00000a7c <adc_is_finished>:
     a7c:	80 91 62 01 	lds	r24, 0x0162	; 0x800162 <__data_end>
     a80:	08 95       	ret

00000a82 <adc_get_value>:
     a82:	10 92 62 01 	sts	0x0162, r1	; 0x800162 <__data_end>
     a86:	80 91 4e 08 	lds	r24, 0x084E	; 0x80084e <adc_value>
     a8a:	90 91 4f 08 	lds	r25, 0x084F	; 0x80084f <adc_value+0x1>
     a8e:	08 95       	ret

00000a90 <__vector_21>:
     a90:	1f 92       	push	r1
     a92:	0f 92       	push	r0
     a94:	0f b6       	in	r0, 0x3f	; 63
     a96:	0f 92       	push	r0
     a98:	11 24       	eor	r1, r1
     a9a:	8f 93       	push	r24
     a9c:	9f 93       	push	r25
     a9e:	80 91 78 00 	lds	r24, 0x0078	; 0x800078 <__DATA_REGION_ORIGIN__+0x18>
     aa2:	90 91 79 00 	lds	r25, 0x0079	; 0x800079 <__DATA_REGION_ORIGIN__+0x19>
     aa6:	90 93 4f 08 	sts	0x084F, r25	; 0x80084f <adc_value+0x1>
     aaa:	80 93 4e 08 	sts	0x084E, r24	; 0x80084e <adc_value>
     aae:	81 e0       	ldi	r24, 0x01	; 1
     ab0:	80 93 62 01 	sts	0x0162, r24	; 0x800162 <__data_end>
     ab4:	9f 91       	pop	r25
     ab6:	8f 91       	pop	r24
     ab8:	0f 90       	pop	r0
     aba:	0f be       	out	0x3f, r0	; 63
     abc:	0f 90       	pop	r0
     abe:	1f 90       	pop	r1
     ac0:	18 95       	reti

00000ac2 <xSerialPortInit>:
     ac2:	cf 92       	push	r12
     ac4:	df 92       	push	r13
     ac6:	ef 92       	push	r14
     ac8:	ff 92       	push	r15
     aca:	cf 93       	push	r28
     acc:	6b 01       	movw	r12, r22
     ace:	7c 01       	movw	r14, r24
     ad0:	c4 2f       	mov	r28, r20
     ad2:	0f b6       	in	r0, 0x3f	; 63
     ad4:	f8 94       	cli
     ad6:	0f 92       	push	r0
     ad8:	40 e0       	ldi	r20, 0x00	; 0
     ada:	61 e0       	ldi	r22, 0x01	; 1
     adc:	8c 2f       	mov	r24, r28
     ade:	0e 94 1f 09 	call	0x123e	; 0x123e <xQueueGenericCreate>
     ae2:	90 93 66 01 	sts	0x0166, r25	; 0x800166 <xRxedChars+0x1>
     ae6:	80 93 65 01 	sts	0x0165, r24	; 0x800165 <xRxedChars>
     aea:	40 e0       	ldi	r20, 0x00	; 0
     aec:	61 e0       	ldi	r22, 0x01	; 1
     aee:	8c 2f       	mov	r24, r28
     af0:	0e 94 1f 09 	call	0x123e	; 0x123e <xQueueGenericCreate>
     af4:	90 93 64 01 	sts	0x0164, r25	; 0x800164 <xCharsForTx+0x1>
     af8:	80 93 63 01 	sts	0x0163, r24	; 0x800163 <xCharsForTx>
     afc:	d7 01       	movw	r26, r14
     afe:	c6 01       	movw	r24, r12
     b00:	88 0f       	add	r24, r24
     b02:	99 1f       	adc	r25, r25
     b04:	aa 1f       	adc	r26, r26
     b06:	bb 1f       	adc	r27, r27
     b08:	88 0f       	add	r24, r24
     b0a:	99 1f       	adc	r25, r25
     b0c:	aa 1f       	adc	r26, r26
     b0e:	bb 1f       	adc	r27, r27
     b10:	9c 01       	movw	r18, r24
     b12:	ad 01       	movw	r20, r26
     b14:	22 0f       	add	r18, r18
     b16:	33 1f       	adc	r19, r19
     b18:	44 1f       	adc	r20, r20
     b1a:	55 1f       	adc	r21, r21
     b1c:	60 e0       	ldi	r22, 0x00	; 0
     b1e:	74 e2       	ldi	r23, 0x24	; 36
     b20:	84 ef       	ldi	r24, 0xF4	; 244
     b22:	90 e0       	ldi	r25, 0x00	; 0
     b24:	0e 94 28 24 	call	0x4850	; 0x4850 <__udivmodsi4>
     b28:	ba 01       	movw	r22, r20
     b2a:	a9 01       	movw	r20, r18
     b2c:	41 50       	subi	r20, 0x01	; 1
     b2e:	51 09       	sbc	r21, r1
     b30:	61 09       	sbc	r22, r1
     b32:	71 09       	sbc	r23, r1
     b34:	e0 ec       	ldi	r30, 0xC0	; 192
     b36:	f0 e0       	ldi	r31, 0x00	; 0
     b38:	80 81       	ld	r24, Z
     b3a:	82 60       	ori	r24, 0x02	; 2
     b3c:	80 83       	st	Z, r24
     b3e:	40 93 c4 00 	sts	0x00C4, r20	; 0x8000c4 <__DATA_REGION_ORIGIN__+0x64>
     b42:	bb 27       	eor	r27, r27
     b44:	a7 2f       	mov	r26, r23
     b46:	96 2f       	mov	r25, r22
     b48:	85 2f       	mov	r24, r21
     b4a:	80 93 c5 00 	sts	0x00C5, r24	; 0x8000c5 <__DATA_REGION_ORIGIN__+0x65>
     b4e:	88 e9       	ldi	r24, 0x98	; 152
     b50:	80 93 c1 00 	sts	0x00C1, r24	; 0x8000c1 <__DATA_REGION_ORIGIN__+0x61>
     b54:	86 e0       	ldi	r24, 0x06	; 6
     b56:	80 93 c2 00 	sts	0x00C2, r24	; 0x8000c2 <__DATA_REGION_ORIGIN__+0x62>
     b5a:	0f 90       	pop	r0
     b5c:	0f be       	out	0x3f, r0	; 63
     b5e:	80 e0       	ldi	r24, 0x00	; 0
     b60:	90 e0       	ldi	r25, 0x00	; 0
     b62:	cf 91       	pop	r28
     b64:	ff 90       	pop	r15
     b66:	ef 90       	pop	r14
     b68:	df 90       	pop	r13
     b6a:	cf 90       	pop	r12
     b6c:	08 95       	ret

00000b6e <xSerialPutString>:
     b6e:	cf 92       	push	r12
     b70:	df 92       	push	r13
     b72:	ef 92       	push	r14
     b74:	ff 92       	push	r15
     b76:	0f 93       	push	r16
     b78:	1f 93       	push	r17
     b7a:	cf 93       	push	r28
     b7c:	df 93       	push	r29
     b7e:	1f 92       	push	r1
     b80:	cd b7       	in	r28, 0x3d	; 61
     b82:	de b7       	in	r29, 0x3e	; 62
     b84:	41 15       	cp	r20, r1
     b86:	51 05       	cpc	r21, r1
     b88:	89 f1       	breq	.+98     	; 0xbec <xSerialPutString+0x7e>
     b8a:	fb 01       	movw	r30, r22
     b8c:	80 81       	ld	r24, Z
     b8e:	88 23       	and	r24, r24
     b90:	69 f1       	breq	.+90     	; 0xbec <xSerialPutString+0x7e>
     b92:	69 01       	movw	r12, r18
     b94:	8b 01       	movw	r16, r22
     b96:	0f 5f       	subi	r16, 0xFF	; 255
     b98:	1f 4f       	sbci	r17, 0xFF	; 255
     b9a:	7b 01       	movw	r14, r22
     b9c:	e4 0e       	add	r14, r20
     b9e:	f5 1e       	adc	r15, r21
     ba0:	89 83       	std	Y+1, r24	; 0x01
     ba2:	20 e0       	ldi	r18, 0x00	; 0
     ba4:	a6 01       	movw	r20, r12
     ba6:	be 01       	movw	r22, r28
     ba8:	6f 5f       	subi	r22, 0xFF	; 255
     baa:	7f 4f       	sbci	r23, 0xFF	; 255
     bac:	80 91 63 01 	lds	r24, 0x0163	; 0x800163 <xCharsForTx>
     bb0:	90 91 64 01 	lds	r25, 0x0164	; 0x800164 <xCharsForTx+0x1>
     bb4:	0e 94 68 09 	call	0x12d0	; 0x12d0 <xQueueGenericSend>
     bb8:	81 30       	cpi	r24, 0x01	; 1
     bba:	59 f0       	breq	.+22     	; 0xbd2 <xSerialPutString+0x64>
     bbc:	80 e0       	ldi	r24, 0x00	; 0
     bbe:	0f 90       	pop	r0
     bc0:	df 91       	pop	r29
     bc2:	cf 91       	pop	r28
     bc4:	1f 91       	pop	r17
     bc6:	0f 91       	pop	r16
     bc8:	ff 90       	pop	r15
     bca:	ef 90       	pop	r14
     bcc:	df 90       	pop	r13
     bce:	cf 90       	pop	r12
     bd0:	08 95       	ret
     bd2:	80 91 c1 00 	lds	r24, 0x00C1	; 0x8000c1 <__DATA_REGION_ORIGIN__+0x61>
     bd6:	80 62       	ori	r24, 0x20	; 32
     bd8:	80 93 c1 00 	sts	0x00C1, r24	; 0x8000c1 <__DATA_REGION_ORIGIN__+0x61>
     bdc:	0e 15       	cp	r16, r14
     bde:	1f 05       	cpc	r17, r15
     be0:	29 f0       	breq	.+10     	; 0xbec <xSerialPutString+0x7e>
     be2:	f8 01       	movw	r30, r16
     be4:	81 91       	ld	r24, Z+
     be6:	8f 01       	movw	r16, r30
     be8:	81 11       	cpse	r24, r1
     bea:	da cf       	rjmp	.-76     	; 0xba0 <xSerialPutString+0x32>
     bec:	81 e0       	ldi	r24, 0x01	; 1
     bee:	e7 cf       	rjmp	.-50     	; 0xbbe <xSerialPutString+0x50>

00000bf0 <__vector_18>:
     bf0:	1f 92       	push	r1
     bf2:	0f 92       	push	r0
     bf4:	0f b6       	in	r0, 0x3f	; 63
     bf6:	0f 92       	push	r0
     bf8:	11 24       	eor	r1, r1
     bfa:	2f 93       	push	r18
     bfc:	3f 93       	push	r19
     bfe:	4f 93       	push	r20
     c00:	5f 93       	push	r21
     c02:	6f 93       	push	r22
     c04:	7f 93       	push	r23
     c06:	8f 93       	push	r24
     c08:	9f 93       	push	r25
     c0a:	af 93       	push	r26
     c0c:	bf 93       	push	r27
     c0e:	ef 93       	push	r30
     c10:	ff 93       	push	r31
     c12:	cf 93       	push	r28
     c14:	df 93       	push	r29
     c16:	00 d0       	rcall	.+0      	; 0xc18 <__vector_18+0x28>
     c18:	cd b7       	in	r28, 0x3d	; 61
     c1a:	de b7       	in	r29, 0x3e	; 62
     c1c:	19 82       	std	Y+1, r1	; 0x01
     c1e:	80 91 c6 00 	lds	r24, 0x00C6	; 0x8000c6 <__DATA_REGION_ORIGIN__+0x66>
     c22:	8a 83       	std	Y+2, r24	; 0x02
     c24:	20 e0       	ldi	r18, 0x00	; 0
     c26:	ae 01       	movw	r20, r28
     c28:	4f 5f       	subi	r20, 0xFF	; 255
     c2a:	5f 4f       	sbci	r21, 0xFF	; 255
     c2c:	be 01       	movw	r22, r28
     c2e:	6e 5f       	subi	r22, 0xFE	; 254
     c30:	7f 4f       	sbci	r23, 0xFF	; 255
     c32:	80 91 65 01 	lds	r24, 0x0165	; 0x800165 <xRxedChars>
     c36:	90 91 66 01 	lds	r25, 0x0166	; 0x800166 <xRxedChars+0x1>
     c3a:	0e 94 1c 0b 	call	0x1638	; 0x1638 <xQueueGenericSendFromISR>
     c3e:	89 81       	ldd	r24, Y+1	; 0x01
     c40:	81 11       	cpse	r24, r1
     c42:	0e 94 67 08 	call	0x10ce	; 0x10ce <vPortYield>
     c46:	0f 90       	pop	r0
     c48:	0f 90       	pop	r0
     c4a:	df 91       	pop	r29
     c4c:	cf 91       	pop	r28
     c4e:	ff 91       	pop	r31
     c50:	ef 91       	pop	r30
     c52:	bf 91       	pop	r27
     c54:	af 91       	pop	r26
     c56:	9f 91       	pop	r25
     c58:	8f 91       	pop	r24
     c5a:	7f 91       	pop	r23
     c5c:	6f 91       	pop	r22
     c5e:	5f 91       	pop	r21
     c60:	4f 91       	pop	r20
     c62:	3f 91       	pop	r19
     c64:	2f 91       	pop	r18
     c66:	0f 90       	pop	r0
     c68:	0f be       	out	0x3f, r0	; 63
     c6a:	0f 90       	pop	r0
     c6c:	1f 90       	pop	r1
     c6e:	18 95       	reti

00000c70 <__vector_19>:
     c70:	1f 92       	push	r1
     c72:	0f 92       	push	r0
     c74:	0f b6       	in	r0, 0x3f	; 63
     c76:	0f 92       	push	r0
     c78:	11 24       	eor	r1, r1
     c7a:	2f 93       	push	r18
     c7c:	3f 93       	push	r19
     c7e:	4f 93       	push	r20
     c80:	5f 93       	push	r21
     c82:	6f 93       	push	r22
     c84:	7f 93       	push	r23
     c86:	8f 93       	push	r24
     c88:	9f 93       	push	r25
     c8a:	af 93       	push	r26
     c8c:	bf 93       	push	r27
     c8e:	ef 93       	push	r30
     c90:	ff 93       	push	r31
     c92:	cf 93       	push	r28
     c94:	df 93       	push	r29
     c96:	00 d0       	rcall	.+0      	; 0xc98 <__vector_19+0x28>
     c98:	cd b7       	in	r28, 0x3d	; 61
     c9a:	de b7       	in	r29, 0x3e	; 62
     c9c:	ae 01       	movw	r20, r28
     c9e:	4f 5f       	subi	r20, 0xFF	; 255
     ca0:	5f 4f       	sbci	r21, 0xFF	; 255
     ca2:	be 01       	movw	r22, r28
     ca4:	6e 5f       	subi	r22, 0xFE	; 254
     ca6:	7f 4f       	sbci	r23, 0xFF	; 255
     ca8:	80 91 63 01 	lds	r24, 0x0163	; 0x800163 <xCharsForTx>
     cac:	90 91 64 01 	lds	r25, 0x0164	; 0x800164 <xCharsForTx+0x1>
     cb0:	0e 94 6b 0e 	call	0x1cd6	; 0x1cd6 <xQueueReceiveFromISR>
     cb4:	81 30       	cpi	r24, 0x01	; 1
     cb6:	d1 f0       	breq	.+52     	; 0xcec <__vector_19+0x7c>
     cb8:	80 91 c1 00 	lds	r24, 0x00C1	; 0x8000c1 <__DATA_REGION_ORIGIN__+0x61>
     cbc:	8f 7d       	andi	r24, 0xDF	; 223
     cbe:	80 93 c1 00 	sts	0x00C1, r24	; 0x8000c1 <__DATA_REGION_ORIGIN__+0x61>
     cc2:	0f 90       	pop	r0
     cc4:	0f 90       	pop	r0
     cc6:	df 91       	pop	r29
     cc8:	cf 91       	pop	r28
     cca:	ff 91       	pop	r31
     ccc:	ef 91       	pop	r30
     cce:	bf 91       	pop	r27
     cd0:	af 91       	pop	r26
     cd2:	9f 91       	pop	r25
     cd4:	8f 91       	pop	r24
     cd6:	7f 91       	pop	r23
     cd8:	6f 91       	pop	r22
     cda:	5f 91       	pop	r21
     cdc:	4f 91       	pop	r20
     cde:	3f 91       	pop	r19
     ce0:	2f 91       	pop	r18
     ce2:	0f 90       	pop	r0
     ce4:	0f be       	out	0x3f, r0	; 63
     ce6:	0f 90       	pop	r0
     ce8:	1f 90       	pop	r1
     cea:	18 95       	reti
     cec:	8a 81       	ldd	r24, Y+2	; 0x02
     cee:	80 93 c6 00 	sts	0x00C6, r24	; 0x8000c6 <__DATA_REGION_ORIGIN__+0x66>
     cf2:	e7 cf       	rjmp	.-50     	; 0xcc2 <__vector_19+0x52>

00000cf4 <reboot>:
     cf4:	f8 94       	cli
     cf6:	98 e0       	ldi	r25, 0x08	; 8
     cf8:	88 e1       	ldi	r24, 0x18	; 24
     cfa:	0f b6       	in	r0, 0x3f	; 63
     cfc:	f8 94       	cli
     cfe:	a8 95       	wdr
     d00:	80 93 60 00 	sts	0x0060, r24	; 0x800060 <__DATA_REGION_ORIGIN__>
     d04:	0f be       	out	0x3f, r0	; 63
     d06:	90 93 60 00 	sts	0x0060, r25	; 0x800060 <__DATA_REGION_ORIGIN__>
     d0a:	ff cf       	rjmp	.-2      	; 0xd0a <reboot+0x16>

00000d0c <main>:
     d0c:	0f b6       	in	r0, 0x3f	; 63
     d0e:	f8 94       	cli
     d10:	a8 95       	wdr
     d12:	80 91 60 00 	lds	r24, 0x0060	; 0x800060 <__DATA_REGION_ORIGIN__>
     d16:	88 61       	ori	r24, 0x18	; 24
     d18:	80 93 60 00 	sts	0x0060, r24	; 0x800060 <__DATA_REGION_ORIGIN__>
     d1c:	10 92 60 00 	sts	0x0060, r1	; 0x800060 <__DATA_REGION_ORIGIN__>
     d20:	0f be       	out	0x3f, r0	; 63
     d22:	40 e0       	ldi	r20, 0x00	; 0
     d24:	66 e0       	ldi	r22, 0x06	; 6
     d26:	81 e0       	ldi	r24, 0x01	; 1
     d28:	0e 94 1f 09 	call	0x123e	; 0x123e <xQueueGenericCreate>
     d2c:	90 93 51 08 	sts	0x0851, r25	; 0x800851 <contextInst+0x1>
     d30:	80 93 50 08 	sts	0x0850, r24	; 0x800850 <contextInst>
     d34:	89 2b       	or	r24, r25
     d36:	79 f1       	breq	.+94     	; 0xd96 <main+0x8a>
     d38:	e1 2c       	mov	r14, r1
     d3a:	f1 2c       	mov	r15, r1
     d3c:	02 e0       	ldi	r16, 0x02	; 2
     d3e:	20 e5       	ldi	r18, 0x50	; 80
     d40:	38 e0       	ldi	r19, 0x08	; 8
     d42:	46 e9       	ldi	r20, 0x96	; 150
     d44:	50 e0       	ldi	r21, 0x00	; 0
     d46:	6a e0       	ldi	r22, 0x0A	; 10
     d48:	71 e0       	ldi	r23, 0x01	; 1
     d4a:	83 e3       	ldi	r24, 0x33	; 51
     d4c:	95 e1       	ldi	r25, 0x15	; 21
     d4e:	0e 94 b5 0f 	call	0x1f6a	; 0x1f6a <xTaskCreate>
     d52:	03 e0       	ldi	r16, 0x03	; 3
     d54:	20 e5       	ldi	r18, 0x50	; 80
     d56:	38 e0       	ldi	r19, 0x08	; 8
     d58:	44 e6       	ldi	r20, 0x64	; 100
     d5a:	50 e0       	ldi	r21, 0x00	; 0
     d5c:	61 e1       	ldi	r22, 0x11	; 17
     d5e:	71 e0       	ldi	r23, 0x01	; 1
     d60:	84 e7       	ldi	r24, 0x74	; 116
     d62:	93 e0       	ldi	r25, 0x03	; 3
     d64:	0e 94 b5 0f 	call	0x1f6a	; 0x1f6a <xTaskCreate>
     d68:	01 e0       	ldi	r16, 0x01	; 1
     d6a:	20 e5       	ldi	r18, 0x50	; 80
     d6c:	38 e0       	ldi	r19, 0x08	; 8
     d6e:	48 e7       	ldi	r20, 0x78	; 120
     d70:	50 e0       	ldi	r21, 0x00	; 0
     d72:	65 e1       	ldi	r22, 0x15	; 21
     d74:	71 e0       	ldi	r23, 0x01	; 1
     d76:	81 ee       	ldi	r24, 0xE1	; 225
     d78:	96 e1       	ldi	r25, 0x16	; 22
     d7a:	0e 94 b5 0f 	call	0x1f6a	; 0x1f6a <xTaskCreate>
     d7e:	20 e5       	ldi	r18, 0x50	; 80
     d80:	38 e0       	ldi	r19, 0x08	; 8
     d82:	4c e2       	ldi	r20, 0x2C	; 44
     d84:	51 e0       	ldi	r21, 0x01	; 1
     d86:	6b e1       	ldi	r22, 0x1B	; 27
     d88:	71 e0       	ldi	r23, 0x01	; 1
     d8a:	82 ed       	ldi	r24, 0xD2	; 210
     d8c:	93 e0       	ldi	r25, 0x03	; 3
     d8e:	0e 94 b5 0f 	call	0x1f6a	; 0x1f6a <xTaskCreate>
     d92:	0e 94 9f 11 	call	0x233e	; 0x233e <vTaskStartScheduler>
     d96:	0e 94 7a 06 	call	0xcf4	; 0xcf4 <reboot>

00000d9a <vListInitialise>:
     d9a:	fc 01       	movw	r30, r24
     d9c:	03 96       	adiw	r24, 0x03	; 3
     d9e:	92 83       	std	Z+2, r25	; 0x02
     da0:	81 83       	std	Z+1, r24	; 0x01
     da2:	2f ef       	ldi	r18, 0xFF	; 255
     da4:	3f ef       	ldi	r19, 0xFF	; 255
     da6:	34 83       	std	Z+4, r19	; 0x04
     da8:	23 83       	std	Z+3, r18	; 0x03
     daa:	96 83       	std	Z+6, r25	; 0x06
     dac:	85 83       	std	Z+5, r24	; 0x05
     dae:	90 87       	std	Z+8, r25	; 0x08
     db0:	87 83       	std	Z+7, r24	; 0x07
     db2:	10 82       	st	Z, r1
     db4:	08 95       	ret

00000db6 <vListInitialiseItem>:
     db6:	fc 01       	movw	r30, r24
     db8:	11 86       	std	Z+9, r1	; 0x09
     dba:	10 86       	std	Z+8, r1	; 0x08
     dbc:	08 95       	ret

00000dbe <vListInsertEnd>:
     dbe:	cf 93       	push	r28
     dc0:	df 93       	push	r29
     dc2:	9c 01       	movw	r18, r24
     dc4:	fb 01       	movw	r30, r22
     dc6:	dc 01       	movw	r26, r24
     dc8:	11 96       	adiw	r26, 0x01	; 1
     dca:	cd 91       	ld	r28, X+
     dcc:	dc 91       	ld	r29, X
     dce:	12 97       	sbiw	r26, 0x02	; 2
     dd0:	d3 83       	std	Z+3, r29	; 0x03
     dd2:	c2 83       	std	Z+2, r28	; 0x02
     dd4:	8c 81       	ldd	r24, Y+4	; 0x04
     dd6:	9d 81       	ldd	r25, Y+5	; 0x05
     dd8:	95 83       	std	Z+5, r25	; 0x05
     dda:	84 83       	std	Z+4, r24	; 0x04
     ddc:	8c 81       	ldd	r24, Y+4	; 0x04
     dde:	9d 81       	ldd	r25, Y+5	; 0x05
     de0:	dc 01       	movw	r26, r24
     de2:	13 96       	adiw	r26, 0x03	; 3
     de4:	7c 93       	st	X, r23
     de6:	6e 93       	st	-X, r22
     de8:	12 97       	sbiw	r26, 0x02	; 2
     dea:	7d 83       	std	Y+5, r23	; 0x05
     dec:	6c 83       	std	Y+4, r22	; 0x04
     dee:	31 87       	std	Z+9, r19	; 0x09
     df0:	20 87       	std	Z+8, r18	; 0x08
     df2:	f9 01       	movw	r30, r18
     df4:	80 81       	ld	r24, Z
     df6:	8f 5f       	subi	r24, 0xFF	; 255
     df8:	80 83       	st	Z, r24
     dfa:	df 91       	pop	r29
     dfc:	cf 91       	pop	r28
     dfe:	08 95       	ret

00000e00 <vListInsert>:
     e00:	cf 93       	push	r28
     e02:	df 93       	push	r29
     e04:	eb 01       	movw	r28, r22
     e06:	48 81       	ld	r20, Y
     e08:	59 81       	ldd	r21, Y+1	; 0x01
     e0a:	4f 3f       	cpi	r20, 0xFF	; 255
     e0c:	2f ef       	ldi	r18, 0xFF	; 255
     e0e:	52 07       	cpc	r21, r18
     e10:	01 f1       	breq	.+64     	; 0xe52 <vListInsert+0x52>
     e12:	dc 01       	movw	r26, r24
     e14:	13 96       	adiw	r26, 0x03	; 3
     e16:	01 c0       	rjmp	.+2      	; 0xe1a <vListInsert+0x1a>
     e18:	df 01       	movw	r26, r30
     e1a:	12 96       	adiw	r26, 0x02	; 2
     e1c:	ed 91       	ld	r30, X+
     e1e:	fc 91       	ld	r31, X
     e20:	13 97       	sbiw	r26, 0x03	; 3
     e22:	20 81       	ld	r18, Z
     e24:	31 81       	ldd	r19, Z+1	; 0x01
     e26:	42 17       	cp	r20, r18
     e28:	53 07       	cpc	r21, r19
     e2a:	b0 f7       	brcc	.-20     	; 0xe18 <vListInsert+0x18>
     e2c:	fb 83       	std	Y+3, r31	; 0x03
     e2e:	ea 83       	std	Y+2, r30	; 0x02
     e30:	d5 83       	std	Z+5, r29	; 0x05
     e32:	c4 83       	std	Z+4, r28	; 0x04
     e34:	bd 83       	std	Y+5, r27	; 0x05
     e36:	ac 83       	std	Y+4, r26	; 0x04
     e38:	13 96       	adiw	r26, 0x03	; 3
     e3a:	dc 93       	st	X, r29
     e3c:	ce 93       	st	-X, r28
     e3e:	12 97       	sbiw	r26, 0x02	; 2
     e40:	99 87       	std	Y+9, r25	; 0x09
     e42:	88 87       	std	Y+8, r24	; 0x08
     e44:	fc 01       	movw	r30, r24
     e46:	20 81       	ld	r18, Z
     e48:	2f 5f       	subi	r18, 0xFF	; 255
     e4a:	20 83       	st	Z, r18
     e4c:	df 91       	pop	r29
     e4e:	cf 91       	pop	r28
     e50:	08 95       	ret
     e52:	fc 01       	movw	r30, r24
     e54:	a7 81       	ldd	r26, Z+7	; 0x07
     e56:	b0 85       	ldd	r27, Z+8	; 0x08
     e58:	12 96       	adiw	r26, 0x02	; 2
     e5a:	ed 91       	ld	r30, X+
     e5c:	fc 91       	ld	r31, X
     e5e:	13 97       	sbiw	r26, 0x03	; 3
     e60:	e5 cf       	rjmp	.-54     	; 0xe2c <vListInsert+0x2c>

00000e62 <uxListRemove>:
     e62:	cf 93       	push	r28
     e64:	df 93       	push	r29
     e66:	fc 01       	movw	r30, r24
     e68:	a0 85       	ldd	r26, Z+8	; 0x08
     e6a:	b1 85       	ldd	r27, Z+9	; 0x09
     e6c:	22 81       	ldd	r18, Z+2	; 0x02
     e6e:	33 81       	ldd	r19, Z+3	; 0x03
     e70:	84 81       	ldd	r24, Z+4	; 0x04
     e72:	95 81       	ldd	r25, Z+5	; 0x05
     e74:	e9 01       	movw	r28, r18
     e76:	9d 83       	std	Y+5, r25	; 0x05
     e78:	8c 83       	std	Y+4, r24	; 0x04
     e7a:	84 81       	ldd	r24, Z+4	; 0x04
     e7c:	95 81       	ldd	r25, Z+5	; 0x05
     e7e:	ec 01       	movw	r28, r24
     e80:	3b 83       	std	Y+3, r19	; 0x03
     e82:	2a 83       	std	Y+2, r18	; 0x02
     e84:	11 96       	adiw	r26, 0x01	; 1
     e86:	2d 91       	ld	r18, X+
     e88:	3c 91       	ld	r19, X
     e8a:	12 97       	sbiw	r26, 0x02	; 2
     e8c:	e2 17       	cp	r30, r18
     e8e:	f3 07       	cpc	r31, r19
     e90:	49 f0       	breq	.+18     	; 0xea4 <uxListRemove+0x42>
     e92:	11 86       	std	Z+9, r1	; 0x09
     e94:	10 86       	std	Z+8, r1	; 0x08
     e96:	8c 91       	ld	r24, X
     e98:	81 50       	subi	r24, 0x01	; 1
     e9a:	8c 93       	st	X, r24
     e9c:	8c 91       	ld	r24, X
     e9e:	df 91       	pop	r29
     ea0:	cf 91       	pop	r28
     ea2:	08 95       	ret
     ea4:	12 96       	adiw	r26, 0x02	; 2
     ea6:	9c 93       	st	X, r25
     ea8:	8e 93       	st	-X, r24
     eaa:	11 97       	sbiw	r26, 0x01	; 1
     eac:	f2 cf       	rjmp	.-28     	; 0xe92 <uxListRemove+0x30>

00000eae <pvPortMalloc>:
     eae:	0f 93       	push	r16
     eb0:	1f 93       	push	r17
     eb2:	cf 93       	push	r28
     eb4:	df 93       	push	r29
     eb6:	ec 01       	movw	r28, r24
     eb8:	0e 94 8d 12 	call	0x251a	; 0x251a <vTaskSuspendAll>
     ebc:	80 91 67 01 	lds	r24, 0x0167	; 0x800167 <xHeapHasBeenInitialised.2129>
     ec0:	81 11       	cpse	r24, r1
     ec2:	21 c0       	rjmp	.+66     	; 0xf06 <pvPortMalloc+0x58>
     ec4:	81 e7       	ldi	r24, 0x71	; 113
     ec6:	91 e0       	ldi	r25, 0x01	; 1
     ec8:	90 93 6d 01 	sts	0x016D, r25	; 0x80016d <xStart+0x1>
     ecc:	80 93 6c 01 	sts	0x016C, r24	; 0x80016c <xStart>
     ed0:	10 92 6f 01 	sts	0x016F, r1	; 0x80016f <xStart+0x3>
     ed4:	10 92 6e 01 	sts	0x016E, r1	; 0x80016e <xStart+0x2>
     ed8:	8b ed       	ldi	r24, 0xDB	; 219
     eda:	95 e0       	ldi	r25, 0x05	; 5
     edc:	90 93 6b 01 	sts	0x016B, r25	; 0x80016b <xEnd+0x3>
     ee0:	80 93 6a 01 	sts	0x016A, r24	; 0x80016a <xEnd+0x2>
     ee4:	10 92 69 01 	sts	0x0169, r1	; 0x800169 <xEnd+0x1>
     ee8:	10 92 68 01 	sts	0x0168, r1	; 0x800168 <xEnd>
     eec:	90 93 74 01 	sts	0x0174, r25	; 0x800174 <ucHeap+0x4>
     ef0:	80 93 73 01 	sts	0x0173, r24	; 0x800173 <ucHeap+0x3>
     ef4:	88 e6       	ldi	r24, 0x68	; 104
     ef6:	91 e0       	ldi	r25, 0x01	; 1
     ef8:	90 93 72 01 	sts	0x0172, r25	; 0x800172 <ucHeap+0x2>
     efc:	80 93 71 01 	sts	0x0171, r24	; 0x800171 <ucHeap+0x1>
     f00:	81 e0       	ldi	r24, 0x01	; 1
     f02:	80 93 67 01 	sts	0x0167, r24	; 0x800167 <xHeapHasBeenInitialised.2129>
     f06:	20 97       	sbiw	r28, 0x00	; 0
     f08:	09 f4       	brne	.+2      	; 0xf0c <pvPortMalloc+0x5e>
     f0a:	5e c0       	rjmp	.+188    	; 0xfc8 <pvPortMalloc+0x11a>
     f0c:	ae 01       	movw	r20, r28
     f0e:	4c 5f       	subi	r20, 0xFC	; 252
     f10:	5f 4f       	sbci	r21, 0xFF	; 255
     f12:	23 96       	adiw	r28, 0x03	; 3
     f14:	ca 3d       	cpi	r28, 0xDA	; 218
     f16:	d5 40       	sbci	r29, 0x05	; 5
     f18:	08 f0       	brcs	.+2      	; 0xf1c <pvPortMalloc+0x6e>
     f1a:	56 c0       	rjmp	.+172    	; 0xfc8 <pvPortMalloc+0x11a>
     f1c:	e0 91 6c 01 	lds	r30, 0x016C	; 0x80016c <xStart>
     f20:	f0 91 6d 01 	lds	r31, 0x016D	; 0x80016d <xStart+0x1>
     f24:	ac e6       	ldi	r26, 0x6C	; 108
     f26:	b1 e0       	ldi	r27, 0x01	; 1
     f28:	06 c0       	rjmp	.+12     	; 0xf36 <pvPortMalloc+0x88>
     f2a:	80 81       	ld	r24, Z
     f2c:	91 81       	ldd	r25, Z+1	; 0x01
     f2e:	00 97       	sbiw	r24, 0x00	; 0
     f30:	39 f0       	breq	.+14     	; 0xf40 <pvPortMalloc+0x92>
     f32:	df 01       	movw	r26, r30
     f34:	fc 01       	movw	r30, r24
     f36:	22 81       	ldd	r18, Z+2	; 0x02
     f38:	33 81       	ldd	r19, Z+3	; 0x03
     f3a:	24 17       	cp	r18, r20
     f3c:	35 07       	cpc	r19, r21
     f3e:	a8 f3       	brcs	.-22     	; 0xf2a <pvPortMalloc+0x7c>
     f40:	c1 e0       	ldi	r28, 0x01	; 1
     f42:	e8 36       	cpi	r30, 0x68	; 104
     f44:	fc 07       	cpc	r31, r28
     f46:	09 f4       	brne	.+2      	; 0xf4a <pvPortMalloc+0x9c>
     f48:	3f c0       	rjmp	.+126    	; 0xfc8 <pvPortMalloc+0x11a>
     f4a:	8f 01       	movw	r16, r30
     f4c:	0c 5f       	subi	r16, 0xFC	; 252
     f4e:	1f 4f       	sbci	r17, 0xFF	; 255
     f50:	80 81       	ld	r24, Z
     f52:	91 81       	ldd	r25, Z+1	; 0x01
     f54:	8d 93       	st	X+, r24
     f56:	9c 93       	st	X, r25
     f58:	c9 01       	movw	r24, r18
     f5a:	84 1b       	sub	r24, r20
     f5c:	95 0b       	sbc	r25, r21
     f5e:	89 30       	cpi	r24, 0x09	; 9
     f60:	91 05       	cpc	r25, r1
     f62:	00 f1       	brcs	.+64     	; 0xfa4 <pvPortMalloc+0xf6>
     f64:	bf 01       	movw	r22, r30
     f66:	64 0f       	add	r22, r20
     f68:	75 1f       	adc	r23, r21
     f6a:	db 01       	movw	r26, r22
     f6c:	13 96       	adiw	r26, 0x03	; 3
     f6e:	9c 93       	st	X, r25
     f70:	8e 93       	st	-X, r24
     f72:	12 97       	sbiw	r26, 0x02	; 2
     f74:	53 83       	std	Z+3, r21	; 0x03
     f76:	42 83       	std	Z+2, r20	; 0x02
     f78:	12 96       	adiw	r26, 0x02	; 2
     f7a:	2d 91       	ld	r18, X+
     f7c:	3c 91       	ld	r19, X
     f7e:	13 97       	sbiw	r26, 0x03	; 3
     f80:	ac e6       	ldi	r26, 0x6C	; 108
     f82:	b1 e0       	ldi	r27, 0x01	; 1
     f84:	01 c0       	rjmp	.+2      	; 0xf88 <pvPortMalloc+0xda>
     f86:	df 01       	movw	r26, r30
     f88:	ed 91       	ld	r30, X+
     f8a:	fc 91       	ld	r31, X
     f8c:	11 97       	sbiw	r26, 0x01	; 1
     f8e:	82 81       	ldd	r24, Z+2	; 0x02
     f90:	93 81       	ldd	r25, Z+3	; 0x03
     f92:	82 17       	cp	r24, r18
     f94:	93 07       	cpc	r25, r19
     f96:	b8 f3       	brcs	.-18     	; 0xf86 <pvPortMalloc+0xd8>
     f98:	eb 01       	movw	r28, r22
     f9a:	f9 83       	std	Y+1, r31	; 0x01
     f9c:	e8 83       	st	Y, r30
     f9e:	6d 93       	st	X+, r22
     fa0:	7c 93       	st	X, r23
     fa2:	9a 01       	movw	r18, r20
     fa4:	80 91 00 01 	lds	r24, 0x0100	; 0x800100 <__data_start>
     fa8:	90 91 01 01 	lds	r25, 0x0101	; 0x800101 <__data_start+0x1>
     fac:	82 1b       	sub	r24, r18
     fae:	93 0b       	sbc	r25, r19
     fb0:	90 93 01 01 	sts	0x0101, r25	; 0x800101 <__data_start+0x1>
     fb4:	80 93 00 01 	sts	0x0100, r24	; 0x800100 <__data_start>
     fb8:	0e 94 93 12 	call	0x2526	; 0x2526 <xTaskResumeAll>
     fbc:	c8 01       	movw	r24, r16
     fbe:	df 91       	pop	r29
     fc0:	cf 91       	pop	r28
     fc2:	1f 91       	pop	r17
     fc4:	0f 91       	pop	r16
     fc6:	08 95       	ret
     fc8:	00 e0       	ldi	r16, 0x00	; 0
     fca:	10 e0       	ldi	r17, 0x00	; 0
     fcc:	0e 94 93 12 	call	0x2526	; 0x2526 <xTaskResumeAll>
     fd0:	c8 01       	movw	r24, r16
     fd2:	df 91       	pop	r29
     fd4:	cf 91       	pop	r28
     fd6:	1f 91       	pop	r17
     fd8:	0f 91       	pop	r16
     fda:	08 95       	ret

00000fdc <vPortFree>:
     fdc:	cf 93       	push	r28
     fde:	df 93       	push	r29
     fe0:	00 97       	sbiw	r24, 0x00	; 0
     fe2:	21 f1       	breq	.+72     	; 0x102c <vPortFree+0x50>
     fe4:	ec 01       	movw	r28, r24
     fe6:	24 97       	sbiw	r28, 0x04	; 4
     fe8:	0e 94 8d 12 	call	0x251a	; 0x251a <vTaskSuspendAll>
     fec:	4a 81       	ldd	r20, Y+2	; 0x02
     fee:	5b 81       	ldd	r21, Y+3	; 0x03
     ff0:	ac e6       	ldi	r26, 0x6C	; 108
     ff2:	b1 e0       	ldi	r27, 0x01	; 1
     ff4:	01 c0       	rjmp	.+2      	; 0xff8 <vPortFree+0x1c>
     ff6:	df 01       	movw	r26, r30
     ff8:	ed 91       	ld	r30, X+
     ffa:	fc 91       	ld	r31, X
     ffc:	11 97       	sbiw	r26, 0x01	; 1
     ffe:	22 81       	ldd	r18, Z+2	; 0x02
    1000:	33 81       	ldd	r19, Z+3	; 0x03
    1002:	24 17       	cp	r18, r20
    1004:	35 07       	cpc	r19, r21
    1006:	b8 f3       	brcs	.-18     	; 0xff6 <vPortFree+0x1a>
    1008:	f9 83       	std	Y+1, r31	; 0x01
    100a:	e8 83       	st	Y, r30
    100c:	cd 93       	st	X+, r28
    100e:	dc 93       	st	X, r29
    1010:	80 91 00 01 	lds	r24, 0x0100	; 0x800100 <__data_start>
    1014:	90 91 01 01 	lds	r25, 0x0101	; 0x800101 <__data_start+0x1>
    1018:	48 0f       	add	r20, r24
    101a:	59 1f       	adc	r21, r25
    101c:	50 93 01 01 	sts	0x0101, r21	; 0x800101 <__data_start+0x1>
    1020:	40 93 00 01 	sts	0x0100, r20	; 0x800100 <__data_start>
    1024:	df 91       	pop	r29
    1026:	cf 91       	pop	r28
    1028:	0c 94 93 12 	jmp	0x2526	; 0x2526 <xTaskResumeAll>
    102c:	df 91       	pop	r29
    102e:	cf 91       	pop	r28
    1030:	08 95       	ret

00001032 <xPortGetFreeHeapSize>:
    1032:	80 91 00 01 	lds	r24, 0x0100	; 0x800100 <__data_start>
    1036:	90 91 01 01 	lds	r25, 0x0101	; 0x800101 <__data_start+0x1>
    103a:	08 95       	ret

0000103c <pxPortInitialiseStack>:
    103c:	fc 01       	movw	r30, r24
    103e:	60 83       	st	Z, r22
    1040:	31 97       	sbiw	r30, 0x01	; 1
    1042:	70 83       	st	Z, r23
    1044:	31 97       	sbiw	r30, 0x01	; 1
    1046:	10 82       	st	Z, r1
    1048:	31 97       	sbiw	r30, 0x01	; 1
    104a:	20 e8       	ldi	r18, 0x80	; 128
    104c:	20 83       	st	Z, r18
    104e:	31 97       	sbiw	r30, 0x01	; 1
    1050:	10 82       	st	Z, r1
    1052:	77 97       	sbiw	r30, 0x17	; 23
    1054:	40 83       	st	Z, r20
    1056:	31 97       	sbiw	r30, 0x01	; 1
    1058:	50 83       	st	Z, r21
    105a:	83 97       	sbiw	r24, 0x23	; 35
    105c:	08 95       	ret

0000105e <xPortStartScheduler>:
    105e:	8e e0       	ldi	r24, 0x0E	; 14
    1060:	87 bd       	out	0x27, r24	; 39
    1062:	82 e0       	ldi	r24, 0x02	; 2
    1064:	84 bd       	out	0x24, r24	; 36
    1066:	85 e0       	ldi	r24, 0x05	; 5
    1068:	85 bd       	out	0x25, r24	; 37
    106a:	ee e6       	ldi	r30, 0x6E	; 110
    106c:	f0 e0       	ldi	r31, 0x00	; 0
    106e:	80 81       	ld	r24, Z
    1070:	82 60       	ori	r24, 0x02	; 2
    1072:	80 83       	st	Z, r24
    1074:	a0 91 cc 07 	lds	r26, 0x07CC	; 0x8007cc <pxCurrentTCB>
    1078:	b0 91 cd 07 	lds	r27, 0x07CD	; 0x8007cd <pxCurrentTCB+0x1>
    107c:	cd 91       	ld	r28, X+
    107e:	cd bf       	out	0x3d, r28	; 61
    1080:	dd 91       	ld	r29, X+
    1082:	de bf       	out	0x3e, r29	; 62
    1084:	ff 91       	pop	r31
    1086:	ef 91       	pop	r30
    1088:	df 91       	pop	r29
    108a:	cf 91       	pop	r28
    108c:	bf 91       	pop	r27
    108e:	af 91       	pop	r26
    1090:	9f 91       	pop	r25
    1092:	8f 91       	pop	r24
    1094:	7f 91       	pop	r23
    1096:	6f 91       	pop	r22
    1098:	5f 91       	pop	r21
    109a:	4f 91       	pop	r20
    109c:	3f 91       	pop	r19
    109e:	2f 91       	pop	r18
    10a0:	1f 91       	pop	r17
    10a2:	0f 91       	pop	r16
    10a4:	ff 90       	pop	r15
    10a6:	ef 90       	pop	r14
    10a8:	df 90       	pop	r13
    10aa:	cf 90       	pop	r12
    10ac:	bf 90       	pop	r11
    10ae:	af 90       	pop	r10
    10b0:	9f 90       	pop	r9
    10b2:	8f 90       	pop	r8
    10b4:	7f 90       	pop	r7
    10b6:	6f 90       	pop	r6
    10b8:	5f 90       	pop	r5
    10ba:	4f 90       	pop	r4
    10bc:	3f 90       	pop	r3
    10be:	2f 90       	pop	r2
    10c0:	1f 90       	pop	r1
    10c2:	0f 90       	pop	r0
    10c4:	0f be       	out	0x3f, r0	; 63
    10c6:	0f 90       	pop	r0
    10c8:	08 95       	ret
    10ca:	81 e0       	ldi	r24, 0x01	; 1
    10cc:	08 95       	ret

000010ce <vPortYield>:
    10ce:	0f 92       	push	r0
    10d0:	0f b6       	in	r0, 0x3f	; 63
    10d2:	f8 94       	cli
    10d4:	0f 92       	push	r0
    10d6:	1f 92       	push	r1
    10d8:	11 24       	eor	r1, r1
    10da:	2f 92       	push	r2
    10dc:	3f 92       	push	r3
    10de:	4f 92       	push	r4
    10e0:	5f 92       	push	r5
    10e2:	6f 92       	push	r6
    10e4:	7f 92       	push	r7
    10e6:	8f 92       	push	r8
    10e8:	9f 92       	push	r9
    10ea:	af 92       	push	r10
    10ec:	bf 92       	push	r11
    10ee:	cf 92       	push	r12
    10f0:	df 92       	push	r13
    10f2:	ef 92       	push	r14
    10f4:	ff 92       	push	r15
    10f6:	0f 93       	push	r16
    10f8:	1f 93       	push	r17
    10fa:	2f 93       	push	r18
    10fc:	3f 93       	push	r19
    10fe:	4f 93       	push	r20
    1100:	5f 93       	push	r21
    1102:	6f 93       	push	r22
    1104:	7f 93       	push	r23
    1106:	8f 93       	push	r24
    1108:	9f 93       	push	r25
    110a:	af 93       	push	r26
    110c:	bf 93       	push	r27
    110e:	cf 93       	push	r28
    1110:	df 93       	push	r29
    1112:	ef 93       	push	r30
    1114:	ff 93       	push	r31
    1116:	a0 91 cc 07 	lds	r26, 0x07CC	; 0x8007cc <pxCurrentTCB>
    111a:	b0 91 cd 07 	lds	r27, 0x07CD	; 0x8007cd <pxCurrentTCB+0x1>
    111e:	0d b6       	in	r0, 0x3d	; 61
    1120:	0d 92       	st	X+, r0
    1122:	0e b6       	in	r0, 0x3e	; 62
    1124:	0d 92       	st	X+, r0
    1126:	0e 94 14 14 	call	0x2828	; 0x2828 <vTaskSwitchContext>
    112a:	a0 91 cc 07 	lds	r26, 0x07CC	; 0x8007cc <pxCurrentTCB>
    112e:	b0 91 cd 07 	lds	r27, 0x07CD	; 0x8007cd <pxCurrentTCB+0x1>
    1132:	cd 91       	ld	r28, X+
    1134:	cd bf       	out	0x3d, r28	; 61
    1136:	dd 91       	ld	r29, X+
    1138:	de bf       	out	0x3e, r29	; 62
    113a:	ff 91       	pop	r31
    113c:	ef 91       	pop	r30
    113e:	df 91       	pop	r29
    1140:	cf 91       	pop	r28
    1142:	bf 91       	pop	r27
    1144:	af 91       	pop	r26
    1146:	9f 91       	pop	r25
    1148:	8f 91       	pop	r24
    114a:	7f 91       	pop	r23
    114c:	6f 91       	pop	r22
    114e:	5f 91       	pop	r21
    1150:	4f 91       	pop	r20
    1152:	3f 91       	pop	r19
    1154:	2f 91       	pop	r18
    1156:	1f 91       	pop	r17
    1158:	0f 91       	pop	r16
    115a:	ff 90       	pop	r15
    115c:	ef 90       	pop	r14
    115e:	df 90       	pop	r13
    1160:	cf 90       	pop	r12
    1162:	bf 90       	pop	r11
    1164:	af 90       	pop	r10
    1166:	9f 90       	pop	r9
    1168:	8f 90       	pop	r8
    116a:	7f 90       	pop	r7
    116c:	6f 90       	pop	r6
    116e:	5f 90       	pop	r5
    1170:	4f 90       	pop	r4
    1172:	3f 90       	pop	r3
    1174:	2f 90       	pop	r2
    1176:	1f 90       	pop	r1
    1178:	0f 90       	pop	r0
    117a:	0f be       	out	0x3f, r0	; 63
    117c:	0f 90       	pop	r0
    117e:	08 95       	ret

00001180 <vPortYieldFromTick>:
    1180:	0f 92       	push	r0
    1182:	0f b6       	in	r0, 0x3f	; 63
    1184:	f8 94       	cli
    1186:	0f 92       	push	r0
    1188:	1f 92       	push	r1
    118a:	11 24       	eor	r1, r1
    118c:	2f 92       	push	r2
    118e:	3f 92       	push	r3
    1190:	4f 92       	push	r4
    1192:	5f 92       	push	r5
    1194:	6f 92       	push	r6
    1196:	7f 92       	push	r7
    1198:	8f 92       	push	r8
    119a:	9f 92       	push	r9
    119c:	af 92       	push	r10
    119e:	bf 92       	push	r11
    11a0:	cf 92       	push	r12
    11a2:	df 92       	push	r13
    11a4:	ef 92       	push	r14
    11a6:	ff 92       	push	r15
    11a8:	0f 93       	push	r16
    11aa:	1f 93       	push	r17
    11ac:	2f 93       	push	r18
    11ae:	3f 93       	push	r19
    11b0:	4f 93       	push	r20
    11b2:	5f 93       	push	r21
    11b4:	6f 93       	push	r22
    11b6:	7f 93       	push	r23
    11b8:	8f 93       	push	r24
    11ba:	9f 93       	push	r25
    11bc:	af 93       	push	r26
    11be:	bf 93       	push	r27
    11c0:	cf 93       	push	r28
    11c2:	df 93       	push	r29
    11c4:	ef 93       	push	r30
    11c6:	ff 93       	push	r31
    11c8:	a0 91 cc 07 	lds	r26, 0x07CC	; 0x8007cc <pxCurrentTCB>
    11cc:	b0 91 cd 07 	lds	r27, 0x07CD	; 0x8007cd <pxCurrentTCB+0x1>
    11d0:	0d b6       	in	r0, 0x3d	; 61
    11d2:	0d 92       	st	X+, r0
    11d4:	0e b6       	in	r0, 0x3e	; 62
    11d6:	0d 92       	st	X+, r0
    11d8:	0e 94 03 14 	call	0x2806	; 0x2806 <xTaskIncrementTick>
    11dc:	81 11       	cpse	r24, r1
    11de:	0e 94 14 14 	call	0x2828	; 0x2828 <vTaskSwitchContext>
    11e2:	a0 91 cc 07 	lds	r26, 0x07CC	; 0x8007cc <pxCurrentTCB>
    11e6:	b0 91 cd 07 	lds	r27, 0x07CD	; 0x8007cd <pxCurrentTCB+0x1>
    11ea:	cd 91       	ld	r28, X+
    11ec:	cd bf       	out	0x3d, r28	; 61
    11ee:	dd 91       	ld	r29, X+
    11f0:	de bf       	out	0x3e, r29	; 62
    11f2:	ff 91       	pop	r31
    11f4:	ef 91       	pop	r30
    11f6:	df 91       	pop	r29
    11f8:	cf 91       	pop	r28
    11fa:	bf 91       	pop	r27
    11fc:	af 91       	pop	r26
    11fe:	9f 91       	pop	r25
    1200:	8f 91       	pop	r24
    1202:	7f 91       	pop	r23
    1204:	6f 91       	pop	r22
    1206:	5f 91       	pop	r21
    1208:	4f 91       	pop	r20
    120a:	3f 91       	pop	r19
    120c:	2f 91       	pop	r18
    120e:	1f 91       	pop	r17
    1210:	0f 91       	pop	r16
    1212:	ff 90       	pop	r15
    1214:	ef 90       	pop	r14
    1216:	df 90       	pop	r13
    1218:	cf 90       	pop	r12
    121a:	bf 90       	pop	r11
    121c:	af 90       	pop	r10
    121e:	9f 90       	pop	r9
    1220:	8f 90       	pop	r8
    1222:	7f 90       	pop	r7
    1224:	6f 90       	pop	r6
    1226:	5f 90       	pop	r5
    1228:	4f 90       	pop	r4
    122a:	3f 90       	pop	r3
    122c:	2f 90       	pop	r2
    122e:	1f 90       	pop	r1
    1230:	0f 90       	pop	r0
    1232:	0f be       	out	0x3f, r0	; 63
    1234:	0f 90       	pop	r0
    1236:	08 95       	ret

00001238 <__vector_14>:
    1238:	0e 94 c0 08 	call	0x1180	; 0x1180 <vPortYieldFromTick>
    123c:	18 95       	reti

0000123e <xQueueGenericCreate>:
    123e:	0f 93       	push	r16
    1240:	1f 93       	push	r17
    1242:	cf 93       	push	r28
    1244:	df 93       	push	r29
    1246:	08 2f       	mov	r16, r24
    1248:	16 2f       	mov	r17, r22
    124a:	86 9f       	mul	r24, r22
    124c:	c0 01       	movw	r24, r0
    124e:	11 24       	eor	r1, r1
    1250:	4f 96       	adiw	r24, 0x1f	; 31
    1252:	0e 94 57 07 	call	0xeae	; 0xeae <pvPortMalloc>
    1256:	ec 01       	movw	r28, r24
    1258:	00 97       	sbiw	r24, 0x00	; 0
    125a:	89 f1       	breq	.+98     	; 0x12be <xQueueGenericCreate+0x80>
    125c:	11 23       	and	r17, r17
    125e:	a9 f1       	breq	.+106    	; 0x12ca <xQueueGenericCreate+0x8c>
    1260:	4f 96       	adiw	r24, 0x1f	; 31
    1262:	99 83       	std	Y+1, r25	; 0x01
    1264:	88 83       	st	Y, r24
    1266:	0b 8f       	std	Y+27, r16	; 0x1b
    1268:	1c 8f       	std	Y+28, r17	; 0x1c
    126a:	0f b6       	in	r0, 0x3f	; 63
    126c:	f8 94       	cli
    126e:	0f 92       	push	r0
    1270:	48 81       	ld	r20, Y
    1272:	59 81       	ldd	r21, Y+1	; 0x01
    1274:	8b 8d       	ldd	r24, Y+27	; 0x1b
    1276:	6c 8d       	ldd	r22, Y+28	; 0x1c
    1278:	9a 01       	movw	r18, r20
    127a:	86 9f       	mul	r24, r22
    127c:	20 0d       	add	r18, r0
    127e:	31 1d       	adc	r19, r1
    1280:	11 24       	eor	r1, r1
    1282:	3d 83       	std	Y+5, r19	; 0x05
    1284:	2c 83       	std	Y+4, r18	; 0x04
    1286:	1a 8e       	std	Y+26, r1	; 0x1a
    1288:	5b 83       	std	Y+3, r21	; 0x03
    128a:	4a 83       	std	Y+2, r20	; 0x02
    128c:	90 e0       	ldi	r25, 0x00	; 0
    128e:	01 97       	sbiw	r24, 0x01	; 1
    1290:	68 9f       	mul	r22, r24
    1292:	90 01       	movw	r18, r0
    1294:	69 9f       	mul	r22, r25
    1296:	30 0d       	add	r19, r0
    1298:	11 24       	eor	r1, r1
    129a:	ca 01       	movw	r24, r20
    129c:	82 0f       	add	r24, r18
    129e:	93 1f       	adc	r25, r19
    12a0:	9f 83       	std	Y+7, r25	; 0x07
    12a2:	8e 83       	std	Y+6, r24	; 0x06
    12a4:	8f ef       	ldi	r24, 0xFF	; 255
    12a6:	8d 8f       	std	Y+29, r24	; 0x1d
    12a8:	8e 8f       	std	Y+30, r24	; 0x1e
    12aa:	ce 01       	movw	r24, r28
    12ac:	08 96       	adiw	r24, 0x08	; 8
    12ae:	0e 94 cd 06 	call	0xd9a	; 0xd9a <vListInitialise>
    12b2:	ce 01       	movw	r24, r28
    12b4:	41 96       	adiw	r24, 0x11	; 17
    12b6:	0e 94 cd 06 	call	0xd9a	; 0xd9a <vListInitialise>
    12ba:	0f 90       	pop	r0
    12bc:	0f be       	out	0x3f, r0	; 63
    12be:	ce 01       	movw	r24, r28
    12c0:	df 91       	pop	r29
    12c2:	cf 91       	pop	r28
    12c4:	1f 91       	pop	r17
    12c6:	0f 91       	pop	r16
    12c8:	08 95       	ret
    12ca:	99 83       	std	Y+1, r25	; 0x01
    12cc:	88 83       	st	Y, r24
    12ce:	cb cf       	rjmp	.-106    	; 0x1266 <xQueueGenericCreate+0x28>

000012d0 <xQueueGenericSend>:
    12d0:	7f 92       	push	r7
    12d2:	8f 92       	push	r8
    12d4:	9f 92       	push	r9
    12d6:	af 92       	push	r10
    12d8:	bf 92       	push	r11
    12da:	cf 92       	push	r12
    12dc:	df 92       	push	r13
    12de:	ef 92       	push	r14
    12e0:	ff 92       	push	r15
    12e2:	0f 93       	push	r16
    12e4:	1f 93       	push	r17
    12e6:	cf 93       	push	r28
    12e8:	df 93       	push	r29
    12ea:	00 d0       	rcall	.+0      	; 0x12ec <xQueueGenericSend+0x1c>
    12ec:	00 d0       	rcall	.+0      	; 0x12ee <xQueueGenericSend+0x1e>
    12ee:	1f 92       	push	r1
    12f0:	cd b7       	in	r28, 0x3d	; 61
    12f2:	de b7       	in	r29, 0x3e	; 62
    12f4:	8c 01       	movw	r16, r24
    12f6:	4b 01       	movw	r8, r22
    12f8:	5d 83       	std	Y+5, r21	; 0x05
    12fa:	4c 83       	std	Y+4, r20	; 0x04
    12fc:	72 2e       	mov	r7, r18
    12fe:	20 e0       	ldi	r18, 0x00	; 0
    1300:	5c 01       	movw	r10, r24
    1302:	81 e1       	ldi	r24, 0x11	; 17
    1304:	a8 0e       	add	r10, r24
    1306:	b1 1c       	adc	r11, r1
    1308:	ee 24       	eor	r14, r14
    130a:	ea 94       	dec	r14
    130c:	68 01       	movw	r12, r16
    130e:	e8 e0       	ldi	r30, 0x08	; 8
    1310:	ce 0e       	add	r12, r30
    1312:	d1 1c       	adc	r13, r1
    1314:	0f b6       	in	r0, 0x3f	; 63
    1316:	f8 94       	cli
    1318:	0f 92       	push	r0
    131a:	f8 01       	movw	r30, r16
    131c:	92 8d       	ldd	r25, Z+26	; 0x1a
    131e:	83 8d       	ldd	r24, Z+27	; 0x1b
    1320:	98 17       	cp	r25, r24
    1322:	08 f4       	brcc	.+2      	; 0x1326 <xQueueGenericSend+0x56>
    1324:	c0 c0       	rjmp	.+384    	; 0x14a6 <xQueueGenericSend+0x1d6>
    1326:	f2 e0       	ldi	r31, 0x02	; 2
    1328:	7f 16       	cp	r7, r31
    132a:	09 f4       	brne	.+2      	; 0x132e <xQueueGenericSend+0x5e>
    132c:	df c0       	rjmp	.+446    	; 0x14ec <xQueueGenericSend+0x21c>
    132e:	8c 81       	ldd	r24, Y+4	; 0x04
    1330:	9d 81       	ldd	r25, Y+5	; 0x05
    1332:	89 2b       	or	r24, r25
    1334:	09 f4       	brne	.+2      	; 0x1338 <xQueueGenericSend+0x68>
    1336:	4b c1       	rjmp	.+662    	; 0x15ce <xQueueGenericSend+0x2fe>
    1338:	22 23       	and	r18, r18
    133a:	09 f4       	brne	.+2      	; 0x133e <xQueueGenericSend+0x6e>
    133c:	ab c0       	rjmp	.+342    	; 0x1494 <xQueueGenericSend+0x1c4>
    133e:	0f 90       	pop	r0
    1340:	0f be       	out	0x3f, r0	; 63
    1342:	0e 94 8d 12 	call	0x251a	; 0x251a <vTaskSuspendAll>
    1346:	0f b6       	in	r0, 0x3f	; 63
    1348:	f8 94       	cli
    134a:	0f 92       	push	r0
    134c:	f8 01       	movw	r30, r16
    134e:	85 8d       	ldd	r24, Z+29	; 0x1d
    1350:	8f 3f       	cpi	r24, 0xFF	; 255
    1352:	09 f4       	brne	.+2      	; 0x1356 <xQueueGenericSend+0x86>
    1354:	a6 c0       	rjmp	.+332    	; 0x14a2 <xQueueGenericSend+0x1d2>
    1356:	f8 01       	movw	r30, r16
    1358:	86 8d       	ldd	r24, Z+30	; 0x1e
    135a:	8f 3f       	cpi	r24, 0xFF	; 255
    135c:	09 f4       	brne	.+2      	; 0x1360 <xQueueGenericSend+0x90>
    135e:	9f c0       	rjmp	.+318    	; 0x149e <xQueueGenericSend+0x1ce>
    1360:	0f 90       	pop	r0
    1362:	0f be       	out	0x3f, r0	; 63
    1364:	be 01       	movw	r22, r28
    1366:	6c 5f       	subi	r22, 0xFC	; 252
    1368:	7f 4f       	sbci	r23, 0xFF	; 255
    136a:	ce 01       	movw	r24, r28
    136c:	01 96       	adiw	r24, 0x01	; 1
    136e:	0e 94 fc 14 	call	0x29f8	; 0x29f8 <xTaskCheckForTimeOut>
    1372:	81 11       	cpse	r24, r1
    1374:	dd c0       	rjmp	.+442    	; 0x1530 <xQueueGenericSend+0x260>
    1376:	0f b6       	in	r0, 0x3f	; 63
    1378:	f8 94       	cli
    137a:	0f 92       	push	r0
    137c:	f8 01       	movw	r30, r16
    137e:	92 8d       	ldd	r25, Z+26	; 0x1a
    1380:	83 8d       	ldd	r24, Z+27	; 0x1b
    1382:	0f 90       	pop	r0
    1384:	0f be       	out	0x3f, r0	; 63
    1386:	98 13       	cpse	r25, r24
    1388:	48 c0       	rjmp	.+144    	; 0x141a <xQueueGenericSend+0x14a>
    138a:	6c 81       	ldd	r22, Y+4	; 0x04
    138c:	7d 81       	ldd	r23, Y+5	; 0x05
    138e:	c6 01       	movw	r24, r12
    1390:	0e 94 59 14 	call	0x28b2	; 0x28b2 <vTaskPlaceOnEventList>
    1394:	0f b6       	in	r0, 0x3f	; 63
    1396:	f8 94       	cli
    1398:	0f 92       	push	r0
    139a:	f8 01       	movw	r30, r16
    139c:	f6 8c       	ldd	r15, Z+30	; 0x1e
    139e:	1f 14       	cp	r1, r15
    13a0:	24 f0       	brlt	.+8      	; 0x13aa <xQueueGenericSend+0xda>
    13a2:	11 c0       	rjmp	.+34     	; 0x13c6 <xQueueGenericSend+0xf6>
    13a4:	fa 94       	dec	r15
    13a6:	ff 20       	and	r15, r15
    13a8:	71 f0       	breq	.+28     	; 0x13c6 <xQueueGenericSend+0xf6>
    13aa:	f8 01       	movw	r30, r16
    13ac:	81 89       	ldd	r24, Z+17	; 0x11
    13ae:	88 23       	and	r24, r24
    13b0:	51 f0       	breq	.+20     	; 0x13c6 <xQueueGenericSend+0xf6>
    13b2:	c5 01       	movw	r24, r10
    13b4:	0e 94 a4 14 	call	0x2948	; 0x2948 <xTaskRemoveFromEventList>
    13b8:	88 23       	and	r24, r24
    13ba:	a1 f3       	breq	.-24     	; 0x13a4 <xQueueGenericSend+0xd4>
    13bc:	0e 94 2f 15 	call	0x2a5e	; 0x2a5e <vTaskMissedYield>
    13c0:	fa 94       	dec	r15
    13c2:	f1 10       	cpse	r15, r1
    13c4:	f2 cf       	rjmp	.-28     	; 0x13aa <xQueueGenericSend+0xda>
    13c6:	f8 01       	movw	r30, r16
    13c8:	e6 8e       	std	Z+30, r14	; 0x1e
    13ca:	0f 90       	pop	r0
    13cc:	0f be       	out	0x3f, r0	; 63
    13ce:	0f b6       	in	r0, 0x3f	; 63
    13d0:	f8 94       	cli
    13d2:	0f 92       	push	r0
    13d4:	f5 8c       	ldd	r15, Z+29	; 0x1d
    13d6:	1f 14       	cp	r1, r15
    13d8:	24 f0       	brlt	.+8      	; 0x13e2 <xQueueGenericSend+0x112>
    13da:	11 c0       	rjmp	.+34     	; 0x13fe <xQueueGenericSend+0x12e>
    13dc:	fa 94       	dec	r15
    13de:	ff 20       	and	r15, r15
    13e0:	71 f0       	breq	.+28     	; 0x13fe <xQueueGenericSend+0x12e>
    13e2:	f8 01       	movw	r30, r16
    13e4:	80 85       	ldd	r24, Z+8	; 0x08
    13e6:	88 23       	and	r24, r24
    13e8:	51 f0       	breq	.+20     	; 0x13fe <xQueueGenericSend+0x12e>
    13ea:	c6 01       	movw	r24, r12
    13ec:	0e 94 a4 14 	call	0x2948	; 0x2948 <xTaskRemoveFromEventList>
    13f0:	88 23       	and	r24, r24
    13f2:	a1 f3       	breq	.-24     	; 0x13dc <xQueueGenericSend+0x10c>
    13f4:	0e 94 2f 15 	call	0x2a5e	; 0x2a5e <vTaskMissedYield>
    13f8:	fa 94       	dec	r15
    13fa:	f1 10       	cpse	r15, r1
    13fc:	f2 cf       	rjmp	.-28     	; 0x13e2 <xQueueGenericSend+0x112>
    13fe:	f8 01       	movw	r30, r16
    1400:	e5 8e       	std	Z+29, r14	; 0x1d
    1402:	0f 90       	pop	r0
    1404:	0f be       	out	0x3f, r0	; 63
    1406:	0e 94 93 12 	call	0x2526	; 0x2526 <xTaskResumeAll>
    140a:	88 23       	and	r24, r24
    140c:	11 f0       	breq	.+4      	; 0x1412 <xQueueGenericSend+0x142>
    140e:	21 e0       	ldi	r18, 0x01	; 1
    1410:	81 cf       	rjmp	.-254    	; 0x1314 <xQueueGenericSend+0x44>
    1412:	0e 94 67 08 	call	0x10ce	; 0x10ce <vPortYield>
    1416:	21 e0       	ldi	r18, 0x01	; 1
    1418:	7d cf       	rjmp	.-262    	; 0x1314 <xQueueGenericSend+0x44>
    141a:	0f b6       	in	r0, 0x3f	; 63
    141c:	f8 94       	cli
    141e:	0f 92       	push	r0
    1420:	f8 01       	movw	r30, r16
    1422:	f6 8c       	ldd	r15, Z+30	; 0x1e
    1424:	1f 14       	cp	r1, r15
    1426:	24 f0       	brlt	.+8      	; 0x1430 <xQueueGenericSend+0x160>
    1428:	11 c0       	rjmp	.+34     	; 0x144c <xQueueGenericSend+0x17c>
    142a:	fa 94       	dec	r15
    142c:	ff 20       	and	r15, r15
    142e:	71 f0       	breq	.+28     	; 0x144c <xQueueGenericSend+0x17c>
    1430:	f8 01       	movw	r30, r16
    1432:	81 89       	ldd	r24, Z+17	; 0x11
    1434:	88 23       	and	r24, r24
    1436:	51 f0       	breq	.+20     	; 0x144c <xQueueGenericSend+0x17c>
    1438:	c5 01       	movw	r24, r10
    143a:	0e 94 a4 14 	call	0x2948	; 0x2948 <xTaskRemoveFromEventList>
    143e:	88 23       	and	r24, r24
    1440:	a1 f3       	breq	.-24     	; 0x142a <xQueueGenericSend+0x15a>
    1442:	0e 94 2f 15 	call	0x2a5e	; 0x2a5e <vTaskMissedYield>
    1446:	fa 94       	dec	r15
    1448:	f1 10       	cpse	r15, r1
    144a:	f2 cf       	rjmp	.-28     	; 0x1430 <xQueueGenericSend+0x160>
    144c:	f8 01       	movw	r30, r16
    144e:	e6 8e       	std	Z+30, r14	; 0x1e
    1450:	0f 90       	pop	r0
    1452:	0f be       	out	0x3f, r0	; 63
    1454:	0f b6       	in	r0, 0x3f	; 63
    1456:	f8 94       	cli
    1458:	0f 92       	push	r0
    145a:	f5 8c       	ldd	r15, Z+29	; 0x1d
    145c:	1f 14       	cp	r1, r15
    145e:	24 f0       	brlt	.+8      	; 0x1468 <xQueueGenericSend+0x198>
    1460:	11 c0       	rjmp	.+34     	; 0x1484 <xQueueGenericSend+0x1b4>
    1462:	fa 94       	dec	r15
    1464:	ff 20       	and	r15, r15
    1466:	71 f0       	breq	.+28     	; 0x1484 <xQueueGenericSend+0x1b4>
    1468:	f8 01       	movw	r30, r16
    146a:	80 85       	ldd	r24, Z+8	; 0x08
    146c:	88 23       	and	r24, r24
    146e:	51 f0       	breq	.+20     	; 0x1484 <xQueueGenericSend+0x1b4>
    1470:	c6 01       	movw	r24, r12
    1472:	0e 94 a4 14 	call	0x2948	; 0x2948 <xTaskRemoveFromEventList>
    1476:	88 23       	and	r24, r24
    1478:	a1 f3       	breq	.-24     	; 0x1462 <xQueueGenericSend+0x192>
    147a:	0e 94 2f 15 	call	0x2a5e	; 0x2a5e <vTaskMissedYield>
    147e:	fa 94       	dec	r15
    1480:	f1 10       	cpse	r15, r1
    1482:	f2 cf       	rjmp	.-28     	; 0x1468 <xQueueGenericSend+0x198>
    1484:	f8 01       	movw	r30, r16
    1486:	e5 8e       	std	Z+29, r14	; 0x1d
    1488:	0f 90       	pop	r0
    148a:	0f be       	out	0x3f, r0	; 63
    148c:	0e 94 93 12 	call	0x2526	; 0x2526 <xTaskResumeAll>
    1490:	21 e0       	ldi	r18, 0x01	; 1
    1492:	40 cf       	rjmp	.-384    	; 0x1314 <xQueueGenericSend+0x44>
    1494:	ce 01       	movw	r24, r28
    1496:	01 96       	adiw	r24, 0x01	; 1
    1498:	0e 94 f1 14 	call	0x29e2	; 0x29e2 <vTaskInternalSetTimeOutState>
    149c:	50 cf       	rjmp	.-352    	; 0x133e <xQueueGenericSend+0x6e>
    149e:	16 8e       	std	Z+30, r1	; 0x1e
    14a0:	5f cf       	rjmp	.-322    	; 0x1360 <xQueueGenericSend+0x90>
    14a2:	15 8e       	std	Z+29, r1	; 0x1d
    14a4:	58 cf       	rjmp	.-336    	; 0x1356 <xQueueGenericSend+0x86>
    14a6:	f8 01       	movw	r30, r16
    14a8:	f2 8c       	ldd	r15, Z+26	; 0x1a
    14aa:	44 8d       	ldd	r20, Z+28	; 0x1c
    14ac:	44 23       	and	r20, r20
    14ae:	19 f1       	breq	.+70     	; 0x14f6 <xQueueGenericSend+0x226>
    14b0:	71 10       	cpse	r7, r1
    14b2:	91 c0       	rjmp	.+290    	; 0x15d6 <xQueueGenericSend+0x306>
    14b4:	50 e0       	ldi	r21, 0x00	; 0
    14b6:	b4 01       	movw	r22, r8
    14b8:	f8 01       	movw	r30, r16
    14ba:	82 81       	ldd	r24, Z+2	; 0x02
    14bc:	93 81       	ldd	r25, Z+3	; 0x03
    14be:	0e 94 78 24 	call	0x48f0	; 0x48f0 <memcpy>
    14c2:	f8 01       	movw	r30, r16
    14c4:	24 8d       	ldd	r18, Z+28	; 0x1c
    14c6:	82 81       	ldd	r24, Z+2	; 0x02
    14c8:	93 81       	ldd	r25, Z+3	; 0x03
    14ca:	82 0f       	add	r24, r18
    14cc:	91 1d       	adc	r25, r1
    14ce:	93 83       	std	Z+3, r25	; 0x03
    14d0:	82 83       	std	Z+2, r24	; 0x02
    14d2:	24 81       	ldd	r18, Z+4	; 0x04
    14d4:	35 81       	ldd	r19, Z+5	; 0x05
    14d6:	82 17       	cp	r24, r18
    14d8:	93 07       	cpc	r25, r19
    14da:	68 f0       	brcs	.+26     	; 0x14f6 <xQueueGenericSend+0x226>
    14dc:	f8 01       	movw	r30, r16
    14de:	80 81       	ld	r24, Z
    14e0:	91 81       	ldd	r25, Z+1	; 0x01
    14e2:	93 83       	std	Z+3, r25	; 0x03
    14e4:	82 83       	std	Z+2, r24	; 0x02
    14e6:	81 e0       	ldi	r24, 0x01	; 1
    14e8:	8f 0d       	add	r24, r15
    14ea:	07 c0       	rjmp	.+14     	; 0x14fa <xQueueGenericSend+0x22a>
    14ec:	f8 01       	movw	r30, r16
    14ee:	f2 8c       	ldd	r15, Z+26	; 0x1a
    14f0:	44 8d       	ldd	r20, Z+28	; 0x1c
    14f2:	41 11       	cpse	r20, r1
    14f4:	70 c0       	rjmp	.+224    	; 0x15d6 <xQueueGenericSend+0x306>
    14f6:	81 e0       	ldi	r24, 0x01	; 1
    14f8:	8f 0d       	add	r24, r15
    14fa:	f8 01       	movw	r30, r16
    14fc:	82 8f       	std	Z+26, r24	; 0x1a
    14fe:	81 89       	ldd	r24, Z+17	; 0x11
    1500:	81 11       	cpse	r24, r1
    1502:	8e c0       	rjmp	.+284    	; 0x1620 <xQueueGenericSend+0x350>
    1504:	0f 90       	pop	r0
    1506:	0f be       	out	0x3f, r0	; 63
    1508:	81 e0       	ldi	r24, 0x01	; 1
    150a:	0f 90       	pop	r0
    150c:	0f 90       	pop	r0
    150e:	0f 90       	pop	r0
    1510:	0f 90       	pop	r0
    1512:	0f 90       	pop	r0
    1514:	df 91       	pop	r29
    1516:	cf 91       	pop	r28
    1518:	1f 91       	pop	r17
    151a:	0f 91       	pop	r16
    151c:	ff 90       	pop	r15
    151e:	ef 90       	pop	r14
    1520:	df 90       	pop	r13
    1522:	cf 90       	pop	r12
    1524:	bf 90       	pop	r11
    1526:	af 90       	pop	r10
    1528:	9f 90       	pop	r9
    152a:	8f 90       	pop	r8
    152c:	7f 90       	pop	r7
    152e:	08 95       	ret
    1530:	0f b6       	in	r0, 0x3f	; 63
    1532:	f8 94       	cli
    1534:	0f 92       	push	r0
    1536:	f8 01       	movw	r30, r16
    1538:	f6 8c       	ldd	r15, Z+30	; 0x1e
    153a:	1f 14       	cp	r1, r15
    153c:	d4 f4       	brge	.+52     	; 0x1572 <xQueueGenericSend+0x2a2>
    153e:	f8 01       	movw	r30, r16
    1540:	81 89       	ldd	r24, Z+17	; 0x11
    1542:	88 23       	and	r24, r24
    1544:	b1 f0       	breq	.+44     	; 0x1572 <xQueueGenericSend+0x2a2>
    1546:	68 01       	movw	r12, r16
    1548:	f1 e1       	ldi	r31, 0x11	; 17
    154a:	cf 0e       	add	r12, r31
    154c:	d1 1c       	adc	r13, r1
    154e:	07 c0       	rjmp	.+14     	; 0x155e <xQueueGenericSend+0x28e>
    1550:	fa 94       	dec	r15
    1552:	ff 20       	and	r15, r15
    1554:	71 f0       	breq	.+28     	; 0x1572 <xQueueGenericSend+0x2a2>
    1556:	f8 01       	movw	r30, r16
    1558:	81 89       	ldd	r24, Z+17	; 0x11
    155a:	88 23       	and	r24, r24
    155c:	51 f0       	breq	.+20     	; 0x1572 <xQueueGenericSend+0x2a2>
    155e:	c6 01       	movw	r24, r12
    1560:	0e 94 a4 14 	call	0x2948	; 0x2948 <xTaskRemoveFromEventList>
    1564:	88 23       	and	r24, r24
    1566:	a1 f3       	breq	.-24     	; 0x1550 <xQueueGenericSend+0x280>
    1568:	0e 94 2f 15 	call	0x2a5e	; 0x2a5e <vTaskMissedYield>
    156c:	fa 94       	dec	r15
    156e:	f1 10       	cpse	r15, r1
    1570:	f2 cf       	rjmp	.-28     	; 0x1556 <xQueueGenericSend+0x286>
    1572:	8f ef       	ldi	r24, 0xFF	; 255
    1574:	f8 01       	movw	r30, r16
    1576:	86 8f       	std	Z+30, r24	; 0x1e
    1578:	0f 90       	pop	r0
    157a:	0f be       	out	0x3f, r0	; 63
    157c:	0f b6       	in	r0, 0x3f	; 63
    157e:	f8 94       	cli
    1580:	0f 92       	push	r0
    1582:	f5 8c       	ldd	r15, Z+29	; 0x1d
    1584:	1f 14       	cp	r1, r15
    1586:	d4 f4       	brge	.+52     	; 0x15bc <xQueueGenericSend+0x2ec>
    1588:	f8 01       	movw	r30, r16
    158a:	80 85       	ldd	r24, Z+8	; 0x08
    158c:	88 23       	and	r24, r24
    158e:	b1 f0       	breq	.+44     	; 0x15bc <xQueueGenericSend+0x2ec>
    1590:	68 01       	movw	r12, r16
    1592:	f8 e0       	ldi	r31, 0x08	; 8
    1594:	cf 0e       	add	r12, r31
    1596:	d1 1c       	adc	r13, r1
    1598:	07 c0       	rjmp	.+14     	; 0x15a8 <xQueueGenericSend+0x2d8>
    159a:	fa 94       	dec	r15
    159c:	ff 20       	and	r15, r15
    159e:	71 f0       	breq	.+28     	; 0x15bc <xQueueGenericSend+0x2ec>
    15a0:	f8 01       	movw	r30, r16
    15a2:	80 85       	ldd	r24, Z+8	; 0x08
    15a4:	88 23       	and	r24, r24
    15a6:	51 f0       	breq	.+20     	; 0x15bc <xQueueGenericSend+0x2ec>
    15a8:	c6 01       	movw	r24, r12
    15aa:	0e 94 a4 14 	call	0x2948	; 0x2948 <xTaskRemoveFromEventList>
    15ae:	88 23       	and	r24, r24
    15b0:	a1 f3       	breq	.-24     	; 0x159a <xQueueGenericSend+0x2ca>
    15b2:	0e 94 2f 15 	call	0x2a5e	; 0x2a5e <vTaskMissedYield>
    15b6:	fa 94       	dec	r15
    15b8:	f1 10       	cpse	r15, r1
    15ba:	f2 cf       	rjmp	.-28     	; 0x15a0 <xQueueGenericSend+0x2d0>
    15bc:	8f ef       	ldi	r24, 0xFF	; 255
    15be:	f8 01       	movw	r30, r16
    15c0:	85 8f       	std	Z+29, r24	; 0x1d
    15c2:	0f 90       	pop	r0
    15c4:	0f be       	out	0x3f, r0	; 63
    15c6:	0e 94 93 12 	call	0x2526	; 0x2526 <xTaskResumeAll>
    15ca:	80 e0       	ldi	r24, 0x00	; 0
    15cc:	9e cf       	rjmp	.-196    	; 0x150a <xQueueGenericSend+0x23a>
    15ce:	0f 90       	pop	r0
    15d0:	0f be       	out	0x3f, r0	; 63
    15d2:	80 e0       	ldi	r24, 0x00	; 0
    15d4:	9a cf       	rjmp	.-204    	; 0x150a <xQueueGenericSend+0x23a>
    15d6:	50 e0       	ldi	r21, 0x00	; 0
    15d8:	b4 01       	movw	r22, r8
    15da:	f8 01       	movw	r30, r16
    15dc:	86 81       	ldd	r24, Z+6	; 0x06
    15de:	97 81       	ldd	r25, Z+7	; 0x07
    15e0:	0e 94 78 24 	call	0x48f0	; 0x48f0 <memcpy>
    15e4:	f8 01       	movw	r30, r16
    15e6:	84 8d       	ldd	r24, Z+28	; 0x1c
    15e8:	90 e0       	ldi	r25, 0x00	; 0
    15ea:	91 95       	neg	r25
    15ec:	81 95       	neg	r24
    15ee:	91 09       	sbc	r25, r1
    15f0:	26 81       	ldd	r18, Z+6	; 0x06
    15f2:	37 81       	ldd	r19, Z+7	; 0x07
    15f4:	28 0f       	add	r18, r24
    15f6:	39 1f       	adc	r19, r25
    15f8:	37 83       	std	Z+7, r19	; 0x07
    15fa:	26 83       	std	Z+6, r18	; 0x06
    15fc:	40 81       	ld	r20, Z
    15fe:	51 81       	ldd	r21, Z+1	; 0x01
    1600:	24 17       	cp	r18, r20
    1602:	35 07       	cpc	r19, r21
    1604:	30 f4       	brcc	.+12     	; 0x1612 <xQueueGenericSend+0x342>
    1606:	24 81       	ldd	r18, Z+4	; 0x04
    1608:	35 81       	ldd	r19, Z+5	; 0x05
    160a:	82 0f       	add	r24, r18
    160c:	93 1f       	adc	r25, r19
    160e:	97 83       	std	Z+7, r25	; 0x07
    1610:	86 83       	std	Z+6, r24	; 0x06
    1612:	f2 e0       	ldi	r31, 0x02	; 2
    1614:	7f 12       	cpse	r7, r31
    1616:	6f cf       	rjmp	.-290    	; 0x14f6 <xQueueGenericSend+0x226>
    1618:	ff 20       	and	r15, r15
    161a:	61 f0       	breq	.+24     	; 0x1634 <xQueueGenericSend+0x364>
    161c:	8f 2d       	mov	r24, r15
    161e:	6d cf       	rjmp	.-294    	; 0x14fa <xQueueGenericSend+0x22a>
    1620:	c8 01       	movw	r24, r16
    1622:	41 96       	adiw	r24, 0x11	; 17
    1624:	0e 94 a4 14 	call	0x2948	; 0x2948 <xTaskRemoveFromEventList>
    1628:	88 23       	and	r24, r24
    162a:	09 f4       	brne	.+2      	; 0x162e <xQueueGenericSend+0x35e>
    162c:	6b cf       	rjmp	.-298    	; 0x1504 <xQueueGenericSend+0x234>
    162e:	0e 94 67 08 	call	0x10ce	; 0x10ce <vPortYield>
    1632:	68 cf       	rjmp	.-304    	; 0x1504 <xQueueGenericSend+0x234>
    1634:	81 e0       	ldi	r24, 0x01	; 1
    1636:	61 cf       	rjmp	.-318    	; 0x14fa <xQueueGenericSend+0x22a>

00001638 <xQueueGenericSendFromISR>:
    1638:	df 92       	push	r13
    163a:	ef 92       	push	r14
    163c:	ff 92       	push	r15
    163e:	0f 93       	push	r16
    1640:	1f 93       	push	r17
    1642:	cf 93       	push	r28
    1644:	df 93       	push	r29
    1646:	ec 01       	movw	r28, r24
    1648:	7a 01       	movw	r14, r20
    164a:	d2 2e       	mov	r13, r18
    164c:	9a 8d       	ldd	r25, Y+26	; 0x1a
    164e:	8b 8d       	ldd	r24, Y+27	; 0x1b
    1650:	98 17       	cp	r25, r24
    1652:	a0 f1       	brcs	.+104    	; 0x16bc <xQueueGenericSendFromISR+0x84>
    1654:	82 e0       	ldi	r24, 0x02	; 2
    1656:	28 17       	cp	r18, r24
    1658:	49 f0       	breq	.+18     	; 0x166c <xQueueGenericSendFromISR+0x34>
    165a:	80 e0       	ldi	r24, 0x00	; 0
    165c:	df 91       	pop	r29
    165e:	cf 91       	pop	r28
    1660:	1f 91       	pop	r17
    1662:	0f 91       	pop	r16
    1664:	ff 90       	pop	r15
    1666:	ef 90       	pop	r14
    1668:	df 90       	pop	r13
    166a:	08 95       	ret
    166c:	1e 8d       	ldd	r17, Y+30	; 0x1e
    166e:	8a 8d       	ldd	r24, Y+26	; 0x1a
    1670:	0a 8d       	ldd	r16, Y+26	; 0x1a
    1672:	4c 8d       	ldd	r20, Y+28	; 0x1c
    1674:	44 23       	and	r20, r20
    1676:	41 f1       	breq	.+80     	; 0x16c8 <xQueueGenericSendFromISR+0x90>
    1678:	50 e0       	ldi	r21, 0x00	; 0
    167a:	8e 81       	ldd	r24, Y+6	; 0x06
    167c:	9f 81       	ldd	r25, Y+7	; 0x07
    167e:	0e 94 78 24 	call	0x48f0	; 0x48f0 <memcpy>
    1682:	8c 8d       	ldd	r24, Y+28	; 0x1c
    1684:	90 e0       	ldi	r25, 0x00	; 0
    1686:	91 95       	neg	r25
    1688:	81 95       	neg	r24
    168a:	91 09       	sbc	r25, r1
    168c:	2e 81       	ldd	r18, Y+6	; 0x06
    168e:	3f 81       	ldd	r19, Y+7	; 0x07
    1690:	28 0f       	add	r18, r24
    1692:	39 1f       	adc	r19, r25
    1694:	3f 83       	std	Y+7, r19	; 0x07
    1696:	2e 83       	std	Y+6, r18	; 0x06
    1698:	48 81       	ld	r20, Y
    169a:	59 81       	ldd	r21, Y+1	; 0x01
    169c:	24 17       	cp	r18, r20
    169e:	35 07       	cpc	r19, r21
    16a0:	30 f4       	brcc	.+12     	; 0x16ae <xQueueGenericSendFromISR+0x76>
    16a2:	2c 81       	ldd	r18, Y+4	; 0x04
    16a4:	3d 81       	ldd	r19, Y+5	; 0x05
    16a6:	82 0f       	add	r24, r18
    16a8:	93 1f       	adc	r25, r19
    16aa:	9f 83       	std	Y+7, r25	; 0x07
    16ac:	8e 83       	std	Y+6, r24	; 0x06
    16ae:	e2 e0       	ldi	r30, 0x02	; 2
    16b0:	de 12       	cpse	r13, r30
    16b2:	0a c0       	rjmp	.+20     	; 0x16c8 <xQueueGenericSendFromISR+0x90>
    16b4:	01 11       	cpse	r16, r1
    16b6:	09 c0       	rjmp	.+18     	; 0x16ca <xQueueGenericSendFromISR+0x92>
    16b8:	01 e0       	ldi	r16, 0x01	; 1
    16ba:	07 c0       	rjmp	.+14     	; 0x16ca <xQueueGenericSendFromISR+0x92>
    16bc:	1e 8d       	ldd	r17, Y+30	; 0x1e
    16be:	8a 8d       	ldd	r24, Y+26	; 0x1a
    16c0:	0a 8d       	ldd	r16, Y+26	; 0x1a
    16c2:	4c 8d       	ldd	r20, Y+28	; 0x1c
    16c4:	41 11       	cpse	r20, r1
    16c6:	0f c0       	rjmp	.+30     	; 0x16e6 <xQueueGenericSendFromISR+0xae>
    16c8:	0f 5f       	subi	r16, 0xFF	; 255
    16ca:	0a 8f       	std	Y+26, r16	; 0x1a
    16cc:	1f 3f       	cpi	r17, 0xFF	; 255
    16ce:	21 f1       	breq	.+72     	; 0x1718 <xQueueGenericSendFromISR+0xe0>
    16d0:	1f 5f       	subi	r17, 0xFF	; 255
    16d2:	1e 8f       	std	Y+30, r17	; 0x1e
    16d4:	81 e0       	ldi	r24, 0x01	; 1
    16d6:	df 91       	pop	r29
    16d8:	cf 91       	pop	r28
    16da:	1f 91       	pop	r17
    16dc:	0f 91       	pop	r16
    16de:	ff 90       	pop	r15
    16e0:	ef 90       	pop	r14
    16e2:	df 90       	pop	r13
    16e4:	08 95       	ret
    16e6:	21 11       	cpse	r18, r1
    16e8:	c7 cf       	rjmp	.-114    	; 0x1678 <xQueueGenericSendFromISR+0x40>
    16ea:	50 e0       	ldi	r21, 0x00	; 0
    16ec:	8a 81       	ldd	r24, Y+2	; 0x02
    16ee:	9b 81       	ldd	r25, Y+3	; 0x03
    16f0:	0e 94 78 24 	call	0x48f0	; 0x48f0 <memcpy>
    16f4:	2c 8d       	ldd	r18, Y+28	; 0x1c
    16f6:	8a 81       	ldd	r24, Y+2	; 0x02
    16f8:	9b 81       	ldd	r25, Y+3	; 0x03
    16fa:	82 0f       	add	r24, r18
    16fc:	91 1d       	adc	r25, r1
    16fe:	9b 83       	std	Y+3, r25	; 0x03
    1700:	8a 83       	std	Y+2, r24	; 0x02
    1702:	2c 81       	ldd	r18, Y+4	; 0x04
    1704:	3d 81       	ldd	r19, Y+5	; 0x05
    1706:	82 17       	cp	r24, r18
    1708:	93 07       	cpc	r25, r19
    170a:	f0 f2       	brcs	.-68     	; 0x16c8 <xQueueGenericSendFromISR+0x90>
    170c:	88 81       	ld	r24, Y
    170e:	99 81       	ldd	r25, Y+1	; 0x01
    1710:	9b 83       	std	Y+3, r25	; 0x03
    1712:	8a 83       	std	Y+2, r24	; 0x02
    1714:	0f 5f       	subi	r16, 0xFF	; 255
    1716:	d9 cf       	rjmp	.-78     	; 0x16ca <xQueueGenericSendFromISR+0x92>
    1718:	89 89       	ldd	r24, Y+17	; 0x11
    171a:	88 23       	and	r24, r24
    171c:	d9 f2       	breq	.-74     	; 0x16d4 <xQueueGenericSendFromISR+0x9c>
    171e:	ce 01       	movw	r24, r28
    1720:	41 96       	adiw	r24, 0x11	; 17
    1722:	0e 94 a4 14 	call	0x2948	; 0x2948 <xTaskRemoveFromEventList>
    1726:	88 23       	and	r24, r24
    1728:	a9 f2       	breq	.-86     	; 0x16d4 <xQueueGenericSendFromISR+0x9c>
    172a:	e1 14       	cp	r14, r1
    172c:	f1 04       	cpc	r15, r1
    172e:	91 f2       	breq	.-92     	; 0x16d4 <xQueueGenericSendFromISR+0x9c>
    1730:	81 e0       	ldi	r24, 0x01	; 1
    1732:	f7 01       	movw	r30, r14
    1734:	80 83       	st	Z, r24
    1736:	92 cf       	rjmp	.-220    	; 0x165c <xQueueGenericSendFromISR+0x24>

00001738 <xQueueReceive>:
    1738:	8f 92       	push	r8
    173a:	9f 92       	push	r9
    173c:	af 92       	push	r10
    173e:	bf 92       	push	r11
    1740:	cf 92       	push	r12
    1742:	df 92       	push	r13
    1744:	ef 92       	push	r14
    1746:	ff 92       	push	r15
    1748:	0f 93       	push	r16
    174a:	1f 93       	push	r17
    174c:	cf 93       	push	r28
    174e:	df 93       	push	r29
    1750:	00 d0       	rcall	.+0      	; 0x1752 <xQueueReceive+0x1a>
    1752:	00 d0       	rcall	.+0      	; 0x1754 <xQueueReceive+0x1c>
    1754:	1f 92       	push	r1
    1756:	cd b7       	in	r28, 0x3d	; 61
    1758:	de b7       	in	r29, 0x3e	; 62
    175a:	8c 01       	movw	r16, r24
    175c:	4b 01       	movw	r8, r22
    175e:	5d 83       	std	Y+5, r21	; 0x05
    1760:	4c 83       	std	Y+4, r20	; 0x04
    1762:	20 e0       	ldi	r18, 0x00	; 0
    1764:	6c 01       	movw	r12, r24
    1766:	81 e1       	ldi	r24, 0x11	; 17
    1768:	c8 0e       	add	r12, r24
    176a:	d1 1c       	adc	r13, r1
    176c:	ee 24       	eor	r14, r14
    176e:	ea 94       	dec	r14
    1770:	58 01       	movw	r10, r16
    1772:	e8 e0       	ldi	r30, 0x08	; 8
    1774:	ae 0e       	add	r10, r30
    1776:	b1 1c       	adc	r11, r1
    1778:	0f b6       	in	r0, 0x3f	; 63
    177a:	f8 94       	cli
    177c:	0f 92       	push	r0
    177e:	f8 01       	movw	r30, r16
    1780:	f2 8c       	ldd	r15, Z+26	; 0x1a
    1782:	f1 10       	cpse	r15, r1
    1784:	01 c1       	rjmp	.+514    	; 0x1988 <xQueueReceive+0x250>
    1786:	8c 81       	ldd	r24, Y+4	; 0x04
    1788:	9d 81       	ldd	r25, Y+5	; 0x05
    178a:	89 2b       	or	r24, r25
    178c:	09 f4       	brne	.+2      	; 0x1790 <xQueueReceive+0x58>
    178e:	29 c1       	rjmp	.+594    	; 0x19e2 <xQueueReceive+0x2aa>
    1790:	22 23       	and	r18, r18
    1792:	09 f4       	brne	.+2      	; 0x1796 <xQueueReceive+0x5e>
    1794:	f0 c0       	rjmp	.+480    	; 0x1976 <xQueueReceive+0x23e>
    1796:	0f 90       	pop	r0
    1798:	0f be       	out	0x3f, r0	; 63
    179a:	0e 94 8d 12 	call	0x251a	; 0x251a <vTaskSuspendAll>
    179e:	0f b6       	in	r0, 0x3f	; 63
    17a0:	f8 94       	cli
    17a2:	0f 92       	push	r0
    17a4:	f8 01       	movw	r30, r16
    17a6:	85 8d       	ldd	r24, Z+29	; 0x1d
    17a8:	8f 3f       	cpi	r24, 0xFF	; 255
    17aa:	09 f4       	brne	.+2      	; 0x17ae <xQueueReceive+0x76>
    17ac:	eb c0       	rjmp	.+470    	; 0x1984 <xQueueReceive+0x24c>
    17ae:	f8 01       	movw	r30, r16
    17b0:	86 8d       	ldd	r24, Z+30	; 0x1e
    17b2:	8f 3f       	cpi	r24, 0xFF	; 255
    17b4:	09 f4       	brne	.+2      	; 0x17b8 <xQueueReceive+0x80>
    17b6:	e4 c0       	rjmp	.+456    	; 0x1980 <xQueueReceive+0x248>
    17b8:	0f 90       	pop	r0
    17ba:	0f be       	out	0x3f, r0	; 63
    17bc:	be 01       	movw	r22, r28
    17be:	6c 5f       	subi	r22, 0xFC	; 252
    17c0:	7f 4f       	sbci	r23, 0xFF	; 255
    17c2:	ce 01       	movw	r24, r28
    17c4:	01 96       	adiw	r24, 0x01	; 1
    17c6:	0e 94 fc 14 	call	0x29f8	; 0x29f8 <xTaskCheckForTimeOut>
    17ca:	81 11       	cpse	r24, r1
    17cc:	8e c0       	rjmp	.+284    	; 0x18ea <xQueueReceive+0x1b2>
    17ce:	0f b6       	in	r0, 0x3f	; 63
    17d0:	f8 94       	cli
    17d2:	0f 92       	push	r0
    17d4:	f8 01       	movw	r30, r16
    17d6:	82 8d       	ldd	r24, Z+26	; 0x1a
    17d8:	0f 90       	pop	r0
    17da:	0f be       	out	0x3f, r0	; 63
    17dc:	81 11       	cpse	r24, r1
    17de:	48 c0       	rjmp	.+144    	; 0x1870 <xQueueReceive+0x138>
    17e0:	6c 81       	ldd	r22, Y+4	; 0x04
    17e2:	7d 81       	ldd	r23, Y+5	; 0x05
    17e4:	c6 01       	movw	r24, r12
    17e6:	0e 94 59 14 	call	0x28b2	; 0x28b2 <vTaskPlaceOnEventList>
    17ea:	0f b6       	in	r0, 0x3f	; 63
    17ec:	f8 94       	cli
    17ee:	0f 92       	push	r0
    17f0:	f8 01       	movw	r30, r16
    17f2:	f6 8c       	ldd	r15, Z+30	; 0x1e
    17f4:	1f 14       	cp	r1, r15
    17f6:	24 f0       	brlt	.+8      	; 0x1800 <xQueueReceive+0xc8>
    17f8:	11 c0       	rjmp	.+34     	; 0x181c <xQueueReceive+0xe4>
    17fa:	fa 94       	dec	r15
    17fc:	ff 20       	and	r15, r15
    17fe:	71 f0       	breq	.+28     	; 0x181c <xQueueReceive+0xe4>
    1800:	f8 01       	movw	r30, r16
    1802:	81 89       	ldd	r24, Z+17	; 0x11
    1804:	88 23       	and	r24, r24
    1806:	51 f0       	breq	.+20     	; 0x181c <xQueueReceive+0xe4>
    1808:	c6 01       	movw	r24, r12
    180a:	0e 94 a4 14 	call	0x2948	; 0x2948 <xTaskRemoveFromEventList>
    180e:	88 23       	and	r24, r24
    1810:	a1 f3       	breq	.-24     	; 0x17fa <xQueueReceive+0xc2>
    1812:	0e 94 2f 15 	call	0x2a5e	; 0x2a5e <vTaskMissedYield>
    1816:	fa 94       	dec	r15
    1818:	f1 10       	cpse	r15, r1
    181a:	f2 cf       	rjmp	.-28     	; 0x1800 <xQueueReceive+0xc8>
    181c:	f8 01       	movw	r30, r16
    181e:	e6 8e       	std	Z+30, r14	; 0x1e
    1820:	0f 90       	pop	r0
    1822:	0f be       	out	0x3f, r0	; 63
    1824:	0f b6       	in	r0, 0x3f	; 63
    1826:	f8 94       	cli
    1828:	0f 92       	push	r0
    182a:	f5 8c       	ldd	r15, Z+29	; 0x1d
    182c:	1f 14       	cp	r1, r15
    182e:	24 f0       	brlt	.+8      	; 0x1838 <xQueueReceive+0x100>
    1830:	11 c0       	rjmp	.+34     	; 0x1854 <xQueueReceive+0x11c>
    1832:	fa 94       	dec	r15
    1834:	ff 20       	and	r15, r15
    1836:	71 f0       	breq	.+28     	; 0x1854 <xQueueReceive+0x11c>
    1838:	f8 01       	movw	r30, r16
    183a:	80 85       	ldd	r24, Z+8	; 0x08
    183c:	88 23       	and	r24, r24
    183e:	51 f0       	breq	.+20     	; 0x1854 <xQueueReceive+0x11c>
    1840:	c5 01       	movw	r24, r10
    1842:	0e 94 a4 14 	call	0x2948	; 0x2948 <xTaskRemoveFromEventList>
    1846:	88 23       	and	r24, r24
    1848:	a1 f3       	breq	.-24     	; 0x1832 <xQueueReceive+0xfa>
    184a:	0e 94 2f 15 	call	0x2a5e	; 0x2a5e <vTaskMissedYield>
    184e:	fa 94       	dec	r15
    1850:	f1 10       	cpse	r15, r1
    1852:	f2 cf       	rjmp	.-28     	; 0x1838 <xQueueReceive+0x100>
    1854:	f8 01       	movw	r30, r16
    1856:	e5 8e       	std	Z+29, r14	; 0x1d
    1858:	0f 90       	pop	r0
    185a:	0f be       	out	0x3f, r0	; 63
    185c:	0e 94 93 12 	call	0x2526	; 0x2526 <xTaskResumeAll>
    1860:	88 23       	and	r24, r24
    1862:	11 f0       	breq	.+4      	; 0x1868 <xQueueReceive+0x130>
    1864:	21 e0       	ldi	r18, 0x01	; 1
    1866:	88 cf       	rjmp	.-240    	; 0x1778 <xQueueReceive+0x40>
    1868:	0e 94 67 08 	call	0x10ce	; 0x10ce <vPortYield>
    186c:	21 e0       	ldi	r18, 0x01	; 1
    186e:	84 cf       	rjmp	.-248    	; 0x1778 <xQueueReceive+0x40>
    1870:	0f b6       	in	r0, 0x3f	; 63
    1872:	f8 94       	cli
    1874:	0f 92       	push	r0
    1876:	f8 01       	movw	r30, r16
    1878:	f6 8c       	ldd	r15, Z+30	; 0x1e
    187a:	1f 14       	cp	r1, r15
    187c:	24 f0       	brlt	.+8      	; 0x1886 <xQueueReceive+0x14e>
    187e:	11 c0       	rjmp	.+34     	; 0x18a2 <xQueueReceive+0x16a>
    1880:	fa 94       	dec	r15
    1882:	ff 20       	and	r15, r15
    1884:	71 f0       	breq	.+28     	; 0x18a2 <xQueueReceive+0x16a>
    1886:	f8 01       	movw	r30, r16
    1888:	81 89       	ldd	r24, Z+17	; 0x11
    188a:	88 23       	and	r24, r24
    188c:	51 f0       	breq	.+20     	; 0x18a2 <xQueueReceive+0x16a>
    188e:	c6 01       	movw	r24, r12
    1890:	0e 94 a4 14 	call	0x2948	; 0x2948 <xTaskRemoveFromEventList>
    1894:	88 23       	and	r24, r24
    1896:	a1 f3       	breq	.-24     	; 0x1880 <xQueueReceive+0x148>
    1898:	0e 94 2f 15 	call	0x2a5e	; 0x2a5e <vTaskMissedYield>
    189c:	fa 94       	dec	r15
    189e:	f1 10       	cpse	r15, r1
    18a0:	f2 cf       	rjmp	.-28     	; 0x1886 <xQueueReceive+0x14e>
    18a2:	f8 01       	movw	r30, r16
    18a4:	e6 8e       	std	Z+30, r14	; 0x1e
    18a6:	0f 90       	pop	r0
    18a8:	0f be       	out	0x3f, r0	; 63
    18aa:	0f b6       	in	r0, 0x3f	; 63
    18ac:	f8 94       	cli
    18ae:	0f 92       	push	r0
    18b0:	f5 8c       	ldd	r15, Z+29	; 0x1d
    18b2:	1f 14       	cp	r1, r15
    18b4:	24 f0       	brlt	.+8      	; 0x18be <xQueueReceive+0x186>
    18b6:	11 c0       	rjmp	.+34     	; 0x18da <xQueueReceive+0x1a2>
    18b8:	fa 94       	dec	r15
    18ba:	ff 20       	and	r15, r15
    18bc:	71 f0       	breq	.+28     	; 0x18da <xQueueReceive+0x1a2>
    18be:	f8 01       	movw	r30, r16
    18c0:	80 85       	ldd	r24, Z+8	; 0x08
    18c2:	88 23       	and	r24, r24
    18c4:	51 f0       	breq	.+20     	; 0x18da <xQueueReceive+0x1a2>
    18c6:	c5 01       	movw	r24, r10
    18c8:	0e 94 a4 14 	call	0x2948	; 0x2948 <xTaskRemoveFromEventList>
    18cc:	88 23       	and	r24, r24
    18ce:	a1 f3       	breq	.-24     	; 0x18b8 <xQueueReceive+0x180>
    18d0:	0e 94 2f 15 	call	0x2a5e	; 0x2a5e <vTaskMissedYield>
    18d4:	fa 94       	dec	r15
    18d6:	f1 10       	cpse	r15, r1
    18d8:	f2 cf       	rjmp	.-28     	; 0x18be <xQueueReceive+0x186>
    18da:	f8 01       	movw	r30, r16
    18dc:	e5 8e       	std	Z+29, r14	; 0x1d
    18de:	0f 90       	pop	r0
    18e0:	0f be       	out	0x3f, r0	; 63
    18e2:	0e 94 93 12 	call	0x2526	; 0x2526 <xTaskResumeAll>
    18e6:	21 e0       	ldi	r18, 0x01	; 1
    18e8:	47 cf       	rjmp	.-370    	; 0x1778 <xQueueReceive+0x40>
    18ea:	0f b6       	in	r0, 0x3f	; 63
    18ec:	f8 94       	cli
    18ee:	0f 92       	push	r0
    18f0:	f8 01       	movw	r30, r16
    18f2:	f6 8c       	ldd	r15, Z+30	; 0x1e
    18f4:	1f 14       	cp	r1, r15
    18f6:	24 f0       	brlt	.+8      	; 0x1900 <xQueueReceive+0x1c8>
    18f8:	11 c0       	rjmp	.+34     	; 0x191c <xQueueReceive+0x1e4>
    18fa:	fa 94       	dec	r15
    18fc:	ff 20       	and	r15, r15
    18fe:	71 f0       	breq	.+28     	; 0x191c <xQueueReceive+0x1e4>
    1900:	f8 01       	movw	r30, r16
    1902:	81 89       	ldd	r24, Z+17	; 0x11
    1904:	88 23       	and	r24, r24
    1906:	51 f0       	breq	.+20     	; 0x191c <xQueueReceive+0x1e4>
    1908:	c6 01       	movw	r24, r12
    190a:	0e 94 a4 14 	call	0x2948	; 0x2948 <xTaskRemoveFromEventList>
    190e:	88 23       	and	r24, r24
    1910:	a1 f3       	breq	.-24     	; 0x18fa <xQueueReceive+0x1c2>
    1912:	0e 94 2f 15 	call	0x2a5e	; 0x2a5e <vTaskMissedYield>
    1916:	fa 94       	dec	r15
    1918:	f1 10       	cpse	r15, r1
    191a:	f2 cf       	rjmp	.-28     	; 0x1900 <xQueueReceive+0x1c8>
    191c:	f8 01       	movw	r30, r16
    191e:	e6 8e       	std	Z+30, r14	; 0x1e
    1920:	0f 90       	pop	r0
    1922:	0f be       	out	0x3f, r0	; 63
    1924:	0f b6       	in	r0, 0x3f	; 63
    1926:	f8 94       	cli
    1928:	0f 92       	push	r0
    192a:	f5 8c       	ldd	r15, Z+29	; 0x1d
    192c:	1f 14       	cp	r1, r15
    192e:	24 f0       	brlt	.+8      	; 0x1938 <xQueueReceive+0x200>
    1930:	11 c0       	rjmp	.+34     	; 0x1954 <xQueueReceive+0x21c>
    1932:	fa 94       	dec	r15
    1934:	ff 20       	and	r15, r15
    1936:	71 f0       	breq	.+28     	; 0x1954 <xQueueReceive+0x21c>
    1938:	f8 01       	movw	r30, r16
    193a:	80 85       	ldd	r24, Z+8	; 0x08
    193c:	88 23       	and	r24, r24
    193e:	51 f0       	breq	.+20     	; 0x1954 <xQueueReceive+0x21c>
    1940:	c5 01       	movw	r24, r10
    1942:	0e 94 a4 14 	call	0x2948	; 0x2948 <xTaskRemoveFromEventList>
    1946:	88 23       	and	r24, r24
    1948:	a1 f3       	breq	.-24     	; 0x1932 <xQueueReceive+0x1fa>
    194a:	0e 94 2f 15 	call	0x2a5e	; 0x2a5e <vTaskMissedYield>
    194e:	fa 94       	dec	r15
    1950:	f1 10       	cpse	r15, r1
    1952:	f2 cf       	rjmp	.-28     	; 0x1938 <xQueueReceive+0x200>
    1954:	f8 01       	movw	r30, r16
    1956:	e5 8e       	std	Z+29, r14	; 0x1d
    1958:	0f 90       	pop	r0
    195a:	0f be       	out	0x3f, r0	; 63
    195c:	0e 94 93 12 	call	0x2526	; 0x2526 <xTaskResumeAll>
    1960:	0f b6       	in	r0, 0x3f	; 63
    1962:	f8 94       	cli
    1964:	0f 92       	push	r0
    1966:	f8 01       	movw	r30, r16
    1968:	82 8d       	ldd	r24, Z+26	; 0x1a
    196a:	0f 90       	pop	r0
    196c:	0f be       	out	0x3f, r0	; 63
    196e:	81 11       	cpse	r24, r1
    1970:	79 cf       	rjmp	.-270    	; 0x1864 <xQueueReceive+0x12c>
    1972:	80 e0       	ldi	r24, 0x00	; 0
    1974:	24 c0       	rjmp	.+72     	; 0x19be <xQueueReceive+0x286>
    1976:	ce 01       	movw	r24, r28
    1978:	01 96       	adiw	r24, 0x01	; 1
    197a:	0e 94 f1 14 	call	0x29e2	; 0x29e2 <vTaskInternalSetTimeOutState>
    197e:	0b cf       	rjmp	.-490    	; 0x1796 <xQueueReceive+0x5e>
    1980:	16 8e       	std	Z+30, r1	; 0x1e
    1982:	1a cf       	rjmp	.-460    	; 0x17b8 <xQueueReceive+0x80>
    1984:	15 8e       	std	Z+29, r1	; 0x1d
    1986:	13 cf       	rjmp	.-474    	; 0x17ae <xQueueReceive+0x76>
    1988:	44 8d       	ldd	r20, Z+28	; 0x1c
    198a:	44 23       	and	r20, r20
    198c:	79 f0       	breq	.+30     	; 0x19ac <xQueueReceive+0x274>
    198e:	50 e0       	ldi	r21, 0x00	; 0
    1990:	66 81       	ldd	r22, Z+6	; 0x06
    1992:	77 81       	ldd	r23, Z+7	; 0x07
    1994:	64 0f       	add	r22, r20
    1996:	75 1f       	adc	r23, r21
    1998:	77 83       	std	Z+7, r23	; 0x07
    199a:	66 83       	std	Z+6, r22	; 0x06
    199c:	84 81       	ldd	r24, Z+4	; 0x04
    199e:	95 81       	ldd	r25, Z+5	; 0x05
    19a0:	68 17       	cp	r22, r24
    19a2:	79 07       	cpc	r23, r25
    19a4:	10 f5       	brcc	.+68     	; 0x19ea <xQueueReceive+0x2b2>
    19a6:	c4 01       	movw	r24, r8
    19a8:	0e 94 78 24 	call	0x48f0	; 0x48f0 <memcpy>
    19ac:	fa 94       	dec	r15
    19ae:	f8 01       	movw	r30, r16
    19b0:	f2 8e       	std	Z+26, r15	; 0x1a
    19b2:	80 85       	ldd	r24, Z+8	; 0x08
    19b4:	81 11       	cpse	r24, r1
    19b6:	1e c0       	rjmp	.+60     	; 0x19f4 <xQueueReceive+0x2bc>
    19b8:	0f 90       	pop	r0
    19ba:	0f be       	out	0x3f, r0	; 63
    19bc:	81 e0       	ldi	r24, 0x01	; 1
    19be:	0f 90       	pop	r0
    19c0:	0f 90       	pop	r0
    19c2:	0f 90       	pop	r0
    19c4:	0f 90       	pop	r0
    19c6:	0f 90       	pop	r0
    19c8:	df 91       	pop	r29
    19ca:	cf 91       	pop	r28
    19cc:	1f 91       	pop	r17
    19ce:	0f 91       	pop	r16
    19d0:	ff 90       	pop	r15
    19d2:	ef 90       	pop	r14
    19d4:	df 90       	pop	r13
    19d6:	cf 90       	pop	r12
    19d8:	bf 90       	pop	r11
    19da:	af 90       	pop	r10
    19dc:	9f 90       	pop	r9
    19de:	8f 90       	pop	r8
    19e0:	08 95       	ret
    19e2:	0f 90       	pop	r0
    19e4:	0f be       	out	0x3f, r0	; 63
    19e6:	80 e0       	ldi	r24, 0x00	; 0
    19e8:	ea cf       	rjmp	.-44     	; 0x19be <xQueueReceive+0x286>
    19ea:	60 81       	ld	r22, Z
    19ec:	71 81       	ldd	r23, Z+1	; 0x01
    19ee:	77 83       	std	Z+7, r23	; 0x07
    19f0:	66 83       	std	Z+6, r22	; 0x06
    19f2:	d9 cf       	rjmp	.-78     	; 0x19a6 <xQueueReceive+0x26e>
    19f4:	c8 01       	movw	r24, r16
    19f6:	08 96       	adiw	r24, 0x08	; 8
    19f8:	0e 94 a4 14 	call	0x2948	; 0x2948 <xTaskRemoveFromEventList>
    19fc:	88 23       	and	r24, r24
    19fe:	e1 f2       	breq	.-72     	; 0x19b8 <xQueueReceive+0x280>
    1a00:	0e 94 67 08 	call	0x10ce	; 0x10ce <vPortYield>
    1a04:	d9 cf       	rjmp	.-78     	; 0x19b8 <xQueueReceive+0x280>

00001a06 <xQueuePeek>:
    1a06:	8f 92       	push	r8
    1a08:	9f 92       	push	r9
    1a0a:	af 92       	push	r10
    1a0c:	bf 92       	push	r11
    1a0e:	cf 92       	push	r12
    1a10:	df 92       	push	r13
    1a12:	ef 92       	push	r14
    1a14:	ff 92       	push	r15
    1a16:	0f 93       	push	r16
    1a18:	1f 93       	push	r17
    1a1a:	cf 93       	push	r28
    1a1c:	df 93       	push	r29
    1a1e:	00 d0       	rcall	.+0      	; 0x1a20 <xQueuePeek+0x1a>
    1a20:	00 d0       	rcall	.+0      	; 0x1a22 <xQueuePeek+0x1c>
    1a22:	1f 92       	push	r1
    1a24:	cd b7       	in	r28, 0x3d	; 61
    1a26:	de b7       	in	r29, 0x3e	; 62
    1a28:	8c 01       	movw	r16, r24
    1a2a:	4b 01       	movw	r8, r22
    1a2c:	5d 83       	std	Y+5, r21	; 0x05
    1a2e:	4c 83       	std	Y+4, r20	; 0x04
    1a30:	20 e0       	ldi	r18, 0x00	; 0
    1a32:	6c 01       	movw	r12, r24
    1a34:	81 e1       	ldi	r24, 0x11	; 17
    1a36:	c8 0e       	add	r12, r24
    1a38:	d1 1c       	adc	r13, r1
    1a3a:	ee 24       	eor	r14, r14
    1a3c:	ea 94       	dec	r14
    1a3e:	58 01       	movw	r10, r16
    1a40:	e8 e0       	ldi	r30, 0x08	; 8
    1a42:	ae 0e       	add	r10, r30
    1a44:	b1 1c       	adc	r11, r1
    1a46:	0f b6       	in	r0, 0x3f	; 63
    1a48:	f8 94       	cli
    1a4a:	0f 92       	push	r0
    1a4c:	f8 01       	movw	r30, r16
    1a4e:	82 8d       	ldd	r24, Z+26	; 0x1a
    1a50:	81 11       	cpse	r24, r1
    1a52:	01 c1       	rjmp	.+514    	; 0x1c56 <xQueuePeek+0x250>
    1a54:	8c 81       	ldd	r24, Y+4	; 0x04
    1a56:	9d 81       	ldd	r25, Y+5	; 0x05
    1a58:	89 2b       	or	r24, r25
    1a5a:	09 f4       	brne	.+2      	; 0x1a5e <xQueuePeek+0x58>
    1a5c:	2a c1       	rjmp	.+596    	; 0x1cb2 <xQueuePeek+0x2ac>
    1a5e:	22 23       	and	r18, r18
    1a60:	09 f4       	brne	.+2      	; 0x1a64 <xQueuePeek+0x5e>
    1a62:	f0 c0       	rjmp	.+480    	; 0x1c44 <xQueuePeek+0x23e>
    1a64:	0f 90       	pop	r0
    1a66:	0f be       	out	0x3f, r0	; 63
    1a68:	0e 94 8d 12 	call	0x251a	; 0x251a <vTaskSuspendAll>
    1a6c:	0f b6       	in	r0, 0x3f	; 63
    1a6e:	f8 94       	cli
    1a70:	0f 92       	push	r0
    1a72:	f8 01       	movw	r30, r16
    1a74:	85 8d       	ldd	r24, Z+29	; 0x1d
    1a76:	8f 3f       	cpi	r24, 0xFF	; 255
    1a78:	09 f4       	brne	.+2      	; 0x1a7c <xQueuePeek+0x76>
    1a7a:	eb c0       	rjmp	.+470    	; 0x1c52 <xQueuePeek+0x24c>
    1a7c:	f8 01       	movw	r30, r16
    1a7e:	86 8d       	ldd	r24, Z+30	; 0x1e
    1a80:	8f 3f       	cpi	r24, 0xFF	; 255
    1a82:	09 f4       	brne	.+2      	; 0x1a86 <xQueuePeek+0x80>
    1a84:	e4 c0       	rjmp	.+456    	; 0x1c4e <xQueuePeek+0x248>
    1a86:	0f 90       	pop	r0
    1a88:	0f be       	out	0x3f, r0	; 63
    1a8a:	be 01       	movw	r22, r28
    1a8c:	6c 5f       	subi	r22, 0xFC	; 252
    1a8e:	7f 4f       	sbci	r23, 0xFF	; 255
    1a90:	ce 01       	movw	r24, r28
    1a92:	01 96       	adiw	r24, 0x01	; 1
    1a94:	0e 94 fc 14 	call	0x29f8	; 0x29f8 <xTaskCheckForTimeOut>
    1a98:	81 11       	cpse	r24, r1
    1a9a:	8e c0       	rjmp	.+284    	; 0x1bb8 <xQueuePeek+0x1b2>
    1a9c:	0f b6       	in	r0, 0x3f	; 63
    1a9e:	f8 94       	cli
    1aa0:	0f 92       	push	r0
    1aa2:	f8 01       	movw	r30, r16
    1aa4:	82 8d       	ldd	r24, Z+26	; 0x1a
    1aa6:	0f 90       	pop	r0
    1aa8:	0f be       	out	0x3f, r0	; 63
    1aaa:	81 11       	cpse	r24, r1
    1aac:	48 c0       	rjmp	.+144    	; 0x1b3e <xQueuePeek+0x138>
    1aae:	6c 81       	ldd	r22, Y+4	; 0x04
    1ab0:	7d 81       	ldd	r23, Y+5	; 0x05
    1ab2:	c6 01       	movw	r24, r12
    1ab4:	0e 94 59 14 	call	0x28b2	; 0x28b2 <vTaskPlaceOnEventList>
    1ab8:	0f b6       	in	r0, 0x3f	; 63
    1aba:	f8 94       	cli
    1abc:	0f 92       	push	r0
    1abe:	f8 01       	movw	r30, r16
    1ac0:	f6 8c       	ldd	r15, Z+30	; 0x1e
    1ac2:	1f 14       	cp	r1, r15
    1ac4:	24 f0       	brlt	.+8      	; 0x1ace <xQueuePeek+0xc8>
    1ac6:	11 c0       	rjmp	.+34     	; 0x1aea <xQueuePeek+0xe4>
    1ac8:	fa 94       	dec	r15
    1aca:	ff 20       	and	r15, r15
    1acc:	71 f0       	breq	.+28     	; 0x1aea <xQueuePeek+0xe4>
    1ace:	f8 01       	movw	r30, r16
    1ad0:	81 89       	ldd	r24, Z+17	; 0x11
    1ad2:	88 23       	and	r24, r24
    1ad4:	51 f0       	breq	.+20     	; 0x1aea <xQueuePeek+0xe4>
    1ad6:	c6 01       	movw	r24, r12
    1ad8:	0e 94 a4 14 	call	0x2948	; 0x2948 <xTaskRemoveFromEventList>
    1adc:	88 23       	and	r24, r24
    1ade:	a1 f3       	breq	.-24     	; 0x1ac8 <xQueuePeek+0xc2>
    1ae0:	0e 94 2f 15 	call	0x2a5e	; 0x2a5e <vTaskMissedYield>
    1ae4:	fa 94       	dec	r15
    1ae6:	f1 10       	cpse	r15, r1
    1ae8:	f2 cf       	rjmp	.-28     	; 0x1ace <xQueuePeek+0xc8>
    1aea:	f8 01       	movw	r30, r16
    1aec:	e6 8e       	std	Z+30, r14	; 0x1e
    1aee:	0f 90       	pop	r0
    1af0:	0f be       	out	0x3f, r0	; 63
    1af2:	0f b6       	in	r0, 0x3f	; 63
    1af4:	f8 94       	cli
    1af6:	0f 92       	push	r0
    1af8:	f5 8c       	ldd	r15, Z+29	; 0x1d
    1afa:	1f 14       	cp	r1, r15
    1afc:	24 f0       	brlt	.+8      	; 0x1b06 <xQueuePeek+0x100>
    1afe:	11 c0       	rjmp	.+34     	; 0x1b22 <xQueuePeek+0x11c>
    1b00:	fa 94       	dec	r15
    1b02:	ff 20       	and	r15, r15
    1b04:	71 f0       	breq	.+28     	; 0x1b22 <xQueuePeek+0x11c>
    1b06:	f8 01       	movw	r30, r16
    1b08:	80 85       	ldd	r24, Z+8	; 0x08
    1b0a:	88 23       	and	r24, r24
    1b0c:	51 f0       	breq	.+20     	; 0x1b22 <xQueuePeek+0x11c>
    1b0e:	c5 01       	movw	r24, r10
    1b10:	0e 94 a4 14 	call	0x2948	; 0x2948 <xTaskRemoveFromEventList>
    1b14:	88 23       	and	r24, r24
    1b16:	a1 f3       	breq	.-24     	; 0x1b00 <xQueuePeek+0xfa>
    1b18:	0e 94 2f 15 	call	0x2a5e	; 0x2a5e <vTaskMissedYield>
    1b1c:	fa 94       	dec	r15
    1b1e:	f1 10       	cpse	r15, r1
    1b20:	f2 cf       	rjmp	.-28     	; 0x1b06 <xQueuePeek+0x100>
    1b22:	f8 01       	movw	r30, r16
    1b24:	e5 8e       	std	Z+29, r14	; 0x1d
    1b26:	0f 90       	pop	r0
    1b28:	0f be       	out	0x3f, r0	; 63
    1b2a:	0e 94 93 12 	call	0x2526	; 0x2526 <xTaskResumeAll>
    1b2e:	88 23       	and	r24, r24
    1b30:	11 f0       	breq	.+4      	; 0x1b36 <xQueuePeek+0x130>
    1b32:	21 e0       	ldi	r18, 0x01	; 1
    1b34:	88 cf       	rjmp	.-240    	; 0x1a46 <xQueuePeek+0x40>
    1b36:	0e 94 67 08 	call	0x10ce	; 0x10ce <vPortYield>
    1b3a:	21 e0       	ldi	r18, 0x01	; 1
    1b3c:	84 cf       	rjmp	.-248    	; 0x1a46 <xQueuePeek+0x40>
    1b3e:	0f b6       	in	r0, 0x3f	; 63
    1b40:	f8 94       	cli
    1b42:	0f 92       	push	r0
    1b44:	f8 01       	movw	r30, r16
    1b46:	f6 8c       	ldd	r15, Z+30	; 0x1e
    1b48:	1f 14       	cp	r1, r15
    1b4a:	24 f0       	brlt	.+8      	; 0x1b54 <xQueuePeek+0x14e>
    1b4c:	11 c0       	rjmp	.+34     	; 0x1b70 <xQueuePeek+0x16a>
    1b4e:	fa 94       	dec	r15
    1b50:	ff 20       	and	r15, r15
    1b52:	71 f0       	breq	.+28     	; 0x1b70 <xQueuePeek+0x16a>
    1b54:	f8 01       	movw	r30, r16
    1b56:	81 89       	ldd	r24, Z+17	; 0x11
    1b58:	88 23       	and	r24, r24
    1b5a:	51 f0       	breq	.+20     	; 0x1b70 <xQueuePeek+0x16a>
    1b5c:	c6 01       	movw	r24, r12
    1b5e:	0e 94 a4 14 	call	0x2948	; 0x2948 <xTaskRemoveFromEventList>
    1b62:	88 23       	and	r24, r24
    1b64:	a1 f3       	breq	.-24     	; 0x1b4e <xQueuePeek+0x148>
    1b66:	0e 94 2f 15 	call	0x2a5e	; 0x2a5e <vTaskMissedYield>
    1b6a:	fa 94       	dec	r15
    1b6c:	f1 10       	cpse	r15, r1
    1b6e:	f2 cf       	rjmp	.-28     	; 0x1b54 <xQueuePeek+0x14e>
    1b70:	f8 01       	movw	r30, r16
    1b72:	e6 8e       	std	Z+30, r14	; 0x1e
    1b74:	0f 90       	pop	r0
    1b76:	0f be       	out	0x3f, r0	; 63
    1b78:	0f b6       	in	r0, 0x3f	; 63
    1b7a:	f8 94       	cli
    1b7c:	0f 92       	push	r0
    1b7e:	f5 8c       	ldd	r15, Z+29	; 0x1d
    1b80:	1f 14       	cp	r1, r15
    1b82:	24 f0       	brlt	.+8      	; 0x1b8c <xQueuePeek+0x186>
    1b84:	11 c0       	rjmp	.+34     	; 0x1ba8 <xQueuePeek+0x1a2>
    1b86:	fa 94       	dec	r15
    1b88:	ff 20       	and	r15, r15
    1b8a:	71 f0       	breq	.+28     	; 0x1ba8 <xQueuePeek+0x1a2>
    1b8c:	f8 01       	movw	r30, r16
    1b8e:	80 85       	ldd	r24, Z+8	; 0x08
    1b90:	88 23       	and	r24, r24
    1b92:	51 f0       	breq	.+20     	; 0x1ba8 <xQueuePeek+0x1a2>
    1b94:	c5 01       	movw	r24, r10
    1b96:	0e 94 a4 14 	call	0x2948	; 0x2948 <xTaskRemoveFromEventList>
    1b9a:	88 23       	and	r24, r24
    1b9c:	a1 f3       	breq	.-24     	; 0x1b86 <xQueuePeek+0x180>
    1b9e:	0e 94 2f 15 	call	0x2a5e	; 0x2a5e <vTaskMissedYield>
    1ba2:	fa 94       	dec	r15
    1ba4:	f1 10       	cpse	r15, r1
    1ba6:	f2 cf       	rjmp	.-28     	; 0x1b8c <xQueuePeek+0x186>
    1ba8:	f8 01       	movw	r30, r16
    1baa:	e5 8e       	std	Z+29, r14	; 0x1d
    1bac:	0f 90       	pop	r0
    1bae:	0f be       	out	0x3f, r0	; 63
    1bb0:	0e 94 93 12 	call	0x2526	; 0x2526 <xTaskResumeAll>
    1bb4:	21 e0       	ldi	r18, 0x01	; 1
    1bb6:	47 cf       	rjmp	.-370    	; 0x1a46 <xQueuePeek+0x40>
    1bb8:	0f b6       	in	r0, 0x3f	; 63
    1bba:	f8 94       	cli
    1bbc:	0f 92       	push	r0
    1bbe:	f8 01       	movw	r30, r16
    1bc0:	f6 8c       	ldd	r15, Z+30	; 0x1e
    1bc2:	1f 14       	cp	r1, r15
    1bc4:	24 f0       	brlt	.+8      	; 0x1bce <xQueuePeek+0x1c8>
    1bc6:	11 c0       	rjmp	.+34     	; 0x1bea <xQueuePeek+0x1e4>
    1bc8:	fa 94       	dec	r15
    1bca:	ff 20       	and	r15, r15
    1bcc:	71 f0       	breq	.+28     	; 0x1bea <xQueuePeek+0x1e4>
    1bce:	f8 01       	movw	r30, r16
    1bd0:	81 89       	ldd	r24, Z+17	; 0x11
    1bd2:	88 23       	and	r24, r24
    1bd4:	51 f0       	breq	.+20     	; 0x1bea <xQueuePeek+0x1e4>
    1bd6:	c6 01       	movw	r24, r12
    1bd8:	0e 94 a4 14 	call	0x2948	; 0x2948 <xTaskRemoveFromEventList>
    1bdc:	88 23       	and	r24, r24
    1bde:	a1 f3       	breq	.-24     	; 0x1bc8 <xQueuePeek+0x1c2>
    1be0:	0e 94 2f 15 	call	0x2a5e	; 0x2a5e <vTaskMissedYield>
    1be4:	fa 94       	dec	r15
    1be6:	f1 10       	cpse	r15, r1
    1be8:	f2 cf       	rjmp	.-28     	; 0x1bce <xQueuePeek+0x1c8>
    1bea:	f8 01       	movw	r30, r16
    1bec:	e6 8e       	std	Z+30, r14	; 0x1e
    1bee:	0f 90       	pop	r0
    1bf0:	0f be       	out	0x3f, r0	; 63
    1bf2:	0f b6       	in	r0, 0x3f	; 63
    1bf4:	f8 94       	cli
    1bf6:	0f 92       	push	r0
    1bf8:	f5 8c       	ldd	r15, Z+29	; 0x1d
    1bfa:	1f 14       	cp	r1, r15
    1bfc:	24 f0       	brlt	.+8      	; 0x1c06 <xQueuePeek+0x200>
    1bfe:	11 c0       	rjmp	.+34     	; 0x1c22 <xQueuePeek+0x21c>
    1c00:	fa 94       	dec	r15
    1c02:	ff 20       	and	r15, r15
    1c04:	71 f0       	breq	.+28     	; 0x1c22 <xQueuePeek+0x21c>
    1c06:	f8 01       	movw	r30, r16
    1c08:	80 85       	ldd	r24, Z+8	; 0x08
    1c0a:	88 23       	and	r24, r24
    1c0c:	51 f0       	breq	.+20     	; 0x1c22 <xQueuePeek+0x21c>
    1c0e:	c5 01       	movw	r24, r10
    1c10:	0e 94 a4 14 	call	0x2948	; 0x2948 <xTaskRemoveFromEventList>
    1c14:	88 23       	and	r24, r24
    1c16:	a1 f3       	breq	.-24     	; 0x1c00 <xQueuePeek+0x1fa>
    1c18:	0e 94 2f 15 	call	0x2a5e	; 0x2a5e <vTaskMissedYield>
    1c1c:	fa 94       	dec	r15
    1c1e:	f1 10       	cpse	r15, r1
    1c20:	f2 cf       	rjmp	.-28     	; 0x1c06 <xQueuePeek+0x200>
    1c22:	f8 01       	movw	r30, r16
    1c24:	e5 8e       	std	Z+29, r14	; 0x1d
    1c26:	0f 90       	pop	r0
    1c28:	0f be       	out	0x3f, r0	; 63
    1c2a:	0e 94 93 12 	call	0x2526	; 0x2526 <xTaskResumeAll>
    1c2e:	0f b6       	in	r0, 0x3f	; 63
    1c30:	f8 94       	cli
    1c32:	0f 92       	push	r0
    1c34:	f8 01       	movw	r30, r16
    1c36:	82 8d       	ldd	r24, Z+26	; 0x1a
    1c38:	0f 90       	pop	r0
    1c3a:	0f be       	out	0x3f, r0	; 63
    1c3c:	81 11       	cpse	r24, r1
    1c3e:	79 cf       	rjmp	.-270    	; 0x1b32 <xQueuePeek+0x12c>
    1c40:	80 e0       	ldi	r24, 0x00	; 0
    1c42:	25 c0       	rjmp	.+74     	; 0x1c8e <xQueuePeek+0x288>
    1c44:	ce 01       	movw	r24, r28
    1c46:	01 96       	adiw	r24, 0x01	; 1
    1c48:	0e 94 f1 14 	call	0x29e2	; 0x29e2 <vTaskInternalSetTimeOutState>
    1c4c:	0b cf       	rjmp	.-490    	; 0x1a64 <xQueuePeek+0x5e>
    1c4e:	16 8e       	std	Z+30, r1	; 0x1e
    1c50:	1a cf       	rjmp	.-460    	; 0x1a86 <xQueuePeek+0x80>
    1c52:	15 8e       	std	Z+29, r1	; 0x1d
    1c54:	13 cf       	rjmp	.-474    	; 0x1a7c <xQueuePeek+0x76>
    1c56:	e6 80       	ldd	r14, Z+6	; 0x06
    1c58:	f7 80       	ldd	r15, Z+7	; 0x07
    1c5a:	44 8d       	ldd	r20, Z+28	; 0x1c
    1c5c:	44 23       	and	r20, r20
    1c5e:	71 f0       	breq	.+28     	; 0x1c7c <xQueuePeek+0x276>
    1c60:	50 e0       	ldi	r21, 0x00	; 0
    1c62:	b7 01       	movw	r22, r14
    1c64:	64 0f       	add	r22, r20
    1c66:	75 1f       	adc	r23, r21
    1c68:	77 83       	std	Z+7, r23	; 0x07
    1c6a:	66 83       	std	Z+6, r22	; 0x06
    1c6c:	84 81       	ldd	r24, Z+4	; 0x04
    1c6e:	95 81       	ldd	r25, Z+5	; 0x05
    1c70:	68 17       	cp	r22, r24
    1c72:	79 07       	cpc	r23, r25
    1c74:	10 f5       	brcc	.+68     	; 0x1cba <xQueuePeek+0x2b4>
    1c76:	c4 01       	movw	r24, r8
    1c78:	0e 94 78 24 	call	0x48f0	; 0x48f0 <memcpy>
    1c7c:	f8 01       	movw	r30, r16
    1c7e:	f7 82       	std	Z+7, r15	; 0x07
    1c80:	e6 82       	std	Z+6, r14	; 0x06
    1c82:	81 89       	ldd	r24, Z+17	; 0x11
    1c84:	81 11       	cpse	r24, r1
    1c86:	1e c0       	rjmp	.+60     	; 0x1cc4 <xQueuePeek+0x2be>
    1c88:	0f 90       	pop	r0
    1c8a:	0f be       	out	0x3f, r0	; 63
    1c8c:	81 e0       	ldi	r24, 0x01	; 1
    1c8e:	0f 90       	pop	r0
    1c90:	0f 90       	pop	r0
    1c92:	0f 90       	pop	r0
    1c94:	0f 90       	pop	r0
    1c96:	0f 90       	pop	r0
    1c98:	df 91       	pop	r29
    1c9a:	cf 91       	pop	r28
    1c9c:	1f 91       	pop	r17
    1c9e:	0f 91       	pop	r16
    1ca0:	ff 90       	pop	r15
    1ca2:	ef 90       	pop	r14
    1ca4:	df 90       	pop	r13
    1ca6:	cf 90       	pop	r12
    1ca8:	bf 90       	pop	r11
    1caa:	af 90       	pop	r10
    1cac:	9f 90       	pop	r9
    1cae:	8f 90       	pop	r8
    1cb0:	08 95       	ret
    1cb2:	0f 90       	pop	r0
    1cb4:	0f be       	out	0x3f, r0	; 63
    1cb6:	80 e0       	ldi	r24, 0x00	; 0
    1cb8:	ea cf       	rjmp	.-44     	; 0x1c8e <xQueuePeek+0x288>
    1cba:	60 81       	ld	r22, Z
    1cbc:	71 81       	ldd	r23, Z+1	; 0x01
    1cbe:	77 83       	std	Z+7, r23	; 0x07
    1cc0:	66 83       	std	Z+6, r22	; 0x06
    1cc2:	d9 cf       	rjmp	.-78     	; 0x1c76 <xQueuePeek+0x270>
    1cc4:	c8 01       	movw	r24, r16
    1cc6:	41 96       	adiw	r24, 0x11	; 17
    1cc8:	0e 94 a4 14 	call	0x2948	; 0x2948 <xTaskRemoveFromEventList>
    1ccc:	88 23       	and	r24, r24
    1cce:	e1 f2       	breq	.-72     	; 0x1c88 <xQueuePeek+0x282>
    1cd0:	0e 94 67 08 	call	0x10ce	; 0x10ce <vPortYield>
    1cd4:	d9 cf       	rjmp	.-78     	; 0x1c88 <xQueuePeek+0x282>

00001cd6 <xQueueReceiveFromISR>:
    1cd6:	ef 92       	push	r14
    1cd8:	ff 92       	push	r15
    1cda:	0f 93       	push	r16
    1cdc:	1f 93       	push	r17
    1cde:	cf 93       	push	r28
    1ce0:	df 93       	push	r29
    1ce2:	fc 01       	movw	r30, r24
    1ce4:	12 8d       	ldd	r17, Z+26	; 0x1a
    1ce6:	11 11       	cpse	r17, r1
    1ce8:	08 c0       	rjmp	.+16     	; 0x1cfa <xQueueReceiveFromISR+0x24>
    1cea:	80 e0       	ldi	r24, 0x00	; 0
    1cec:	df 91       	pop	r29
    1cee:	cf 91       	pop	r28
    1cf0:	1f 91       	pop	r17
    1cf2:	0f 91       	pop	r16
    1cf4:	ff 90       	pop	r15
    1cf6:	ef 90       	pop	r14
    1cf8:	08 95       	ret
    1cfa:	7a 01       	movw	r14, r20
    1cfc:	9b 01       	movw	r18, r22
    1cfe:	ec 01       	movw	r28, r24
    1d00:	05 8d       	ldd	r16, Z+29	; 0x1d
    1d02:	44 8d       	ldd	r20, Z+28	; 0x1c
    1d04:	44 23       	and	r20, r20
    1d06:	79 f0       	breq	.+30     	; 0x1d26 <xQueueReceiveFromISR+0x50>
    1d08:	50 e0       	ldi	r21, 0x00	; 0
    1d0a:	66 81       	ldd	r22, Z+6	; 0x06
    1d0c:	77 81       	ldd	r23, Z+7	; 0x07
    1d0e:	64 0f       	add	r22, r20
    1d10:	75 1f       	adc	r23, r21
    1d12:	77 83       	std	Z+7, r23	; 0x07
    1d14:	66 83       	std	Z+6, r22	; 0x06
    1d16:	84 81       	ldd	r24, Z+4	; 0x04
    1d18:	95 81       	ldd	r25, Z+5	; 0x05
    1d1a:	68 17       	cp	r22, r24
    1d1c:	79 07       	cpc	r23, r25
    1d1e:	88 f4       	brcc	.+34     	; 0x1d42 <xQueueReceiveFromISR+0x6c>
    1d20:	c9 01       	movw	r24, r18
    1d22:	0e 94 78 24 	call	0x48f0	; 0x48f0 <memcpy>
    1d26:	11 50       	subi	r17, 0x01	; 1
    1d28:	1a 8f       	std	Y+26, r17	; 0x1a
    1d2a:	0f 3f       	cpi	r16, 0xFF	; 255
    1d2c:	79 f0       	breq	.+30     	; 0x1d4c <xQueueReceiveFromISR+0x76>
    1d2e:	0f 5f       	subi	r16, 0xFF	; 255
    1d30:	0d 8f       	std	Y+29, r16	; 0x1d
    1d32:	81 e0       	ldi	r24, 0x01	; 1
    1d34:	df 91       	pop	r29
    1d36:	cf 91       	pop	r28
    1d38:	1f 91       	pop	r17
    1d3a:	0f 91       	pop	r16
    1d3c:	ff 90       	pop	r15
    1d3e:	ef 90       	pop	r14
    1d40:	08 95       	ret
    1d42:	60 81       	ld	r22, Z
    1d44:	71 81       	ldd	r23, Z+1	; 0x01
    1d46:	77 83       	std	Z+7, r23	; 0x07
    1d48:	66 83       	std	Z+6, r22	; 0x06
    1d4a:	ea cf       	rjmp	.-44     	; 0x1d20 <xQueueReceiveFromISR+0x4a>
    1d4c:	88 85       	ldd	r24, Y+8	; 0x08
    1d4e:	88 23       	and	r24, r24
    1d50:	81 f3       	breq	.-32     	; 0x1d32 <xQueueReceiveFromISR+0x5c>
    1d52:	ce 01       	movw	r24, r28
    1d54:	08 96       	adiw	r24, 0x08	; 8
    1d56:	0e 94 a4 14 	call	0x2948	; 0x2948 <xTaskRemoveFromEventList>
    1d5a:	88 23       	and	r24, r24
    1d5c:	51 f3       	breq	.-44     	; 0x1d32 <xQueueReceiveFromISR+0x5c>
    1d5e:	e1 14       	cp	r14, r1
    1d60:	f1 04       	cpc	r15, r1
    1d62:	39 f3       	breq	.-50     	; 0x1d32 <xQueueReceiveFromISR+0x5c>
    1d64:	81 e0       	ldi	r24, 0x01	; 1
    1d66:	f7 01       	movw	r30, r14
    1d68:	80 83       	st	Z, r24
    1d6a:	c0 cf       	rjmp	.-128    	; 0x1cec <xQueueReceiveFromISR+0x16>

00001d6c <uxQueueMessagesWaiting>:
    1d6c:	0f b6       	in	r0, 0x3f	; 63
    1d6e:	f8 94       	cli
    1d70:	0f 92       	push	r0
    1d72:	fc 01       	movw	r30, r24
    1d74:	82 8d       	ldd	r24, Z+26	; 0x1a
    1d76:	0f 90       	pop	r0
    1d78:	0f be       	out	0x3f, r0	; 63
    1d7a:	08 95       	ret

00001d7c <prvIdleTask>:
    1d7c:	20 c0       	rjmp	.+64     	; 0x1dbe <prvIdleTask+0x42>
    1d7e:	0f b6       	in	r0, 0x3f	; 63
    1d80:	f8 94       	cli
    1d82:	0f 92       	push	r0
    1d84:	e0 91 61 07 	lds	r30, 0x0761	; 0x800761 <xTasksWaitingTermination+0x5>
    1d88:	f0 91 62 07 	lds	r31, 0x0762	; 0x800762 <xTasksWaitingTermination+0x6>
    1d8c:	c6 81       	ldd	r28, Z+6	; 0x06
    1d8e:	d7 81       	ldd	r29, Z+7	; 0x07
    1d90:	ce 01       	movw	r24, r28
    1d92:	02 96       	adiw	r24, 0x02	; 2
    1d94:	0e 94 31 07 	call	0xe62	; 0xe62 <uxListRemove>
    1d98:	80 91 5a 07 	lds	r24, 0x075A	; 0x80075a <uxCurrentNumberOfTasks>
    1d9c:	81 50       	subi	r24, 0x01	; 1
    1d9e:	80 93 5a 07 	sts	0x075A, r24	; 0x80075a <uxCurrentNumberOfTasks>
    1da2:	80 91 5b 07 	lds	r24, 0x075B	; 0x80075b <uxDeletedTasksWaitingCleanUp>
    1da6:	81 50       	subi	r24, 0x01	; 1
    1da8:	80 93 5b 07 	sts	0x075B, r24	; 0x80075b <uxDeletedTasksWaitingCleanUp>
    1dac:	0f 90       	pop	r0
    1dae:	0f be       	out	0x3f, r0	; 63
    1db0:	8f 89       	ldd	r24, Y+23	; 0x17
    1db2:	98 8d       	ldd	r25, Y+24	; 0x18
    1db4:	0e 94 ee 07 	call	0xfdc	; 0xfdc <vPortFree>
    1db8:	ce 01       	movw	r24, r28
    1dba:	0e 94 ee 07 	call	0xfdc	; 0xfdc <vPortFree>
    1dbe:	80 91 5b 07 	lds	r24, 0x075B	; 0x80075b <uxDeletedTasksWaitingCleanUp>
    1dc2:	81 11       	cpse	r24, r1
    1dc4:	dc cf       	rjmp	.-72     	; 0x1d7e <prvIdleTask+0x2>
    1dc6:	80 91 84 07 	lds	r24, 0x0784	; 0x800784 <pxReadyTasksLists>
    1dca:	82 30       	cpi	r24, 0x02	; 2
    1dcc:	c0 f3       	brcs	.-16     	; 0x1dbe <prvIdleTask+0x42>
    1dce:	0e 94 67 08 	call	0x10ce	; 0x10ce <vPortYield>
    1dd2:	f5 cf       	rjmp	.-22     	; 0x1dbe <prvIdleTask+0x42>

00001dd4 <xTaskIncrementTick.part.4>:
    1dd4:	df 92       	push	r13
    1dd6:	ef 92       	push	r14
    1dd8:	ff 92       	push	r15
    1dda:	0f 93       	push	r16
    1ddc:	1f 93       	push	r17
    1dde:	cf 93       	push	r28
    1de0:	df 93       	push	r29
    1de2:	e0 90 58 07 	lds	r14, 0x0758	; 0x800758 <xTickCount>
    1de6:	f0 90 59 07 	lds	r15, 0x0759	; 0x800759 <xTickCount+0x1>
    1dea:	8f ef       	ldi	r24, 0xFF	; 255
    1dec:	e8 1a       	sub	r14, r24
    1dee:	f8 0a       	sbc	r15, r24
    1df0:	f0 92 59 07 	sts	0x0759, r15	; 0x800759 <xTickCount+0x1>
    1df4:	e0 92 58 07 	sts	0x0758, r14	; 0x800758 <xTickCount>
    1df8:	e1 14       	cp	r14, r1
    1dfa:	f1 04       	cpc	r15, r1
    1dfc:	11 f5       	brne	.+68     	; 0x1e42 <xTaskIncrementTick.part.4+0x6e>
    1dfe:	80 91 70 07 	lds	r24, 0x0770	; 0x800770 <pxDelayedTaskList>
    1e02:	90 91 71 07 	lds	r25, 0x0771	; 0x800771 <pxDelayedTaskList+0x1>
    1e06:	20 91 6e 07 	lds	r18, 0x076E	; 0x80076e <pxOverflowDelayedTaskList>
    1e0a:	30 91 6f 07 	lds	r19, 0x076F	; 0x80076f <pxOverflowDelayedTaskList+0x1>
    1e0e:	30 93 71 07 	sts	0x0771, r19	; 0x800771 <pxDelayedTaskList+0x1>
    1e12:	20 93 70 07 	sts	0x0770, r18	; 0x800770 <pxDelayedTaskList>
    1e16:	90 93 6f 07 	sts	0x076F, r25	; 0x80076f <pxOverflowDelayedTaskList+0x1>
    1e1a:	80 93 6e 07 	sts	0x076E, r24	; 0x80076e <pxOverflowDelayedTaskList>
    1e1e:	80 91 52 07 	lds	r24, 0x0752	; 0x800752 <xNumOfOverflows>
    1e22:	8f 5f       	subi	r24, 0xFF	; 255
    1e24:	80 93 52 07 	sts	0x0752, r24	; 0x800752 <xNumOfOverflows>
    1e28:	e0 91 70 07 	lds	r30, 0x0770	; 0x800770 <pxDelayedTaskList>
    1e2c:	f0 91 71 07 	lds	r31, 0x0771	; 0x800771 <pxDelayedTaskList+0x1>
    1e30:	80 81       	ld	r24, Z
    1e32:	81 11       	cpse	r24, r1
    1e34:	8c c0       	rjmp	.+280    	; 0x1f4e <xTaskIncrementTick.part.4+0x17a>
    1e36:	8f ef       	ldi	r24, 0xFF	; 255
    1e38:	9f ef       	ldi	r25, 0xFF	; 255
    1e3a:	90 93 50 07 	sts	0x0750, r25	; 0x800750 <xNextTaskUnblockTime+0x1>
    1e3e:	80 93 4f 07 	sts	0x074F, r24	; 0x80074f <xNextTaskUnblockTime>
    1e42:	80 91 4f 07 	lds	r24, 0x074F	; 0x80074f <xNextTaskUnblockTime>
    1e46:	90 91 50 07 	lds	r25, 0x0750	; 0x800750 <xNextTaskUnblockTime+0x1>
    1e4a:	d1 2c       	mov	r13, r1
    1e4c:	e8 16       	cp	r14, r24
    1e4e:	f9 06       	cpc	r15, r25
    1e50:	30 f5       	brcc	.+76     	; 0x1e9e <xTaskIncrementTick.part.4+0xca>
    1e52:	e0 91 cc 07 	lds	r30, 0x07CC	; 0x8007cc <pxCurrentTCB>
    1e56:	f0 91 cd 07 	lds	r31, 0x07CD	; 0x8007cd <pxCurrentTCB+0x1>
    1e5a:	86 89       	ldd	r24, Z+22	; 0x16
    1e5c:	90 e0       	ldi	r25, 0x00	; 0
    1e5e:	fc 01       	movw	r30, r24
    1e60:	ee 0f       	add	r30, r30
    1e62:	ff 1f       	adc	r31, r31
    1e64:	ee 0f       	add	r30, r30
    1e66:	ff 1f       	adc	r31, r31
    1e68:	ee 0f       	add	r30, r30
    1e6a:	ff 1f       	adc	r31, r31
    1e6c:	8e 0f       	add	r24, r30
    1e6e:	9f 1f       	adc	r25, r31
    1e70:	fc 01       	movw	r30, r24
    1e72:	ec 57       	subi	r30, 0x7C	; 124
    1e74:	f8 4f       	sbci	r31, 0xF8	; 248
    1e76:	80 81       	ld	r24, Z
    1e78:	82 30       	cpi	r24, 0x02	; 2
    1e7a:	10 f0       	brcs	.+4      	; 0x1e80 <xTaskIncrementTick.part.4+0xac>
    1e7c:	dd 24       	eor	r13, r13
    1e7e:	d3 94       	inc	r13
    1e80:	80 91 53 07 	lds	r24, 0x0753	; 0x800753 <xYieldPending>
    1e84:	88 23       	and	r24, r24
    1e86:	11 f0       	breq	.+4      	; 0x1e8c <xTaskIncrementTick.part.4+0xb8>
    1e88:	dd 24       	eor	r13, r13
    1e8a:	d3 94       	inc	r13
    1e8c:	8d 2d       	mov	r24, r13
    1e8e:	df 91       	pop	r29
    1e90:	cf 91       	pop	r28
    1e92:	1f 91       	pop	r17
    1e94:	0f 91       	pop	r16
    1e96:	ff 90       	pop	r15
    1e98:	ef 90       	pop	r14
    1e9a:	df 90       	pop	r13
    1e9c:	08 95       	ret
    1e9e:	e0 91 70 07 	lds	r30, 0x0770	; 0x800770 <pxDelayedTaskList>
    1ea2:	f0 91 71 07 	lds	r31, 0x0771	; 0x800771 <pxDelayedTaskList+0x1>
    1ea6:	80 81       	ld	r24, Z
    1ea8:	88 23       	and	r24, r24
    1eaa:	09 f4       	brne	.+2      	; 0x1eae <xTaskIncrementTick.part.4+0xda>
    1eac:	44 c0       	rjmp	.+136    	; 0x1f36 <xTaskIncrementTick.part.4+0x162>
    1eae:	e0 91 70 07 	lds	r30, 0x0770	; 0x800770 <pxDelayedTaskList>
    1eb2:	f0 91 71 07 	lds	r31, 0x0771	; 0x800771 <pxDelayedTaskList+0x1>
    1eb6:	05 80       	ldd	r0, Z+5	; 0x05
    1eb8:	f6 81       	ldd	r31, Z+6	; 0x06
    1eba:	e0 2d       	mov	r30, r0
    1ebc:	c6 81       	ldd	r28, Z+6	; 0x06
    1ebe:	d7 81       	ldd	r29, Z+7	; 0x07
    1ec0:	8a 81       	ldd	r24, Y+2	; 0x02
    1ec2:	9b 81       	ldd	r25, Y+3	; 0x03
    1ec4:	e8 16       	cp	r14, r24
    1ec6:	f9 06       	cpc	r15, r25
    1ec8:	e8 f1       	brcs	.+122    	; 0x1f44 <xTaskIncrementTick.part.4+0x170>
    1eca:	8e 01       	movw	r16, r28
    1ecc:	0e 5f       	subi	r16, 0xFE	; 254
    1ece:	1f 4f       	sbci	r17, 0xFF	; 255
    1ed0:	c8 01       	movw	r24, r16
    1ed2:	0e 94 31 07 	call	0xe62	; 0xe62 <uxListRemove>
    1ed6:	8c 89       	ldd	r24, Y+20	; 0x14
    1ed8:	9d 89       	ldd	r25, Y+21	; 0x15
    1eda:	89 2b       	or	r24, r25
    1edc:	21 f0       	breq	.+8      	; 0x1ee6 <xTaskIncrementTick.part.4+0x112>
    1ede:	ce 01       	movw	r24, r28
    1ee0:	0c 96       	adiw	r24, 0x0c	; 12
    1ee2:	0e 94 31 07 	call	0xe62	; 0xe62 <uxListRemove>
    1ee6:	8e 89       	ldd	r24, Y+22	; 0x16
    1ee8:	90 91 57 07 	lds	r25, 0x0757	; 0x800757 <uxTopReadyPriority>
    1eec:	98 17       	cp	r25, r24
    1eee:	10 f4       	brcc	.+4      	; 0x1ef4 <xTaskIncrementTick.part.4+0x120>
    1ef0:	80 93 57 07 	sts	0x0757, r24	; 0x800757 <uxTopReadyPriority>
    1ef4:	90 e0       	ldi	r25, 0x00	; 0
    1ef6:	9c 01       	movw	r18, r24
    1ef8:	22 0f       	add	r18, r18
    1efa:	33 1f       	adc	r19, r19
    1efc:	22 0f       	add	r18, r18
    1efe:	33 1f       	adc	r19, r19
    1f00:	22 0f       	add	r18, r18
    1f02:	33 1f       	adc	r19, r19
    1f04:	82 0f       	add	r24, r18
    1f06:	93 1f       	adc	r25, r19
    1f08:	b8 01       	movw	r22, r16
    1f0a:	8c 57       	subi	r24, 0x7C	; 124
    1f0c:	98 4f       	sbci	r25, 0xF8	; 248
    1f0e:	0e 94 df 06 	call	0xdbe	; 0xdbe <vListInsertEnd>
    1f12:	e0 91 cc 07 	lds	r30, 0x07CC	; 0x8007cc <pxCurrentTCB>
    1f16:	f0 91 cd 07 	lds	r31, 0x07CD	; 0x8007cd <pxCurrentTCB+0x1>
    1f1a:	9e 89       	ldd	r25, Y+22	; 0x16
    1f1c:	86 89       	ldd	r24, Z+22	; 0x16
    1f1e:	98 17       	cp	r25, r24
    1f20:	08 f4       	brcc	.+2      	; 0x1f24 <xTaskIncrementTick.part.4+0x150>
    1f22:	bd cf       	rjmp	.-134    	; 0x1e9e <xTaskIncrementTick.part.4+0xca>
    1f24:	dd 24       	eor	r13, r13
    1f26:	d3 94       	inc	r13
    1f28:	e0 91 70 07 	lds	r30, 0x0770	; 0x800770 <pxDelayedTaskList>
    1f2c:	f0 91 71 07 	lds	r31, 0x0771	; 0x800771 <pxDelayedTaskList+0x1>
    1f30:	80 81       	ld	r24, Z
    1f32:	81 11       	cpse	r24, r1
    1f34:	bc cf       	rjmp	.-136    	; 0x1eae <xTaskIncrementTick.part.4+0xda>
    1f36:	8f ef       	ldi	r24, 0xFF	; 255
    1f38:	9f ef       	ldi	r25, 0xFF	; 255
    1f3a:	90 93 50 07 	sts	0x0750, r25	; 0x800750 <xNextTaskUnblockTime+0x1>
    1f3e:	80 93 4f 07 	sts	0x074F, r24	; 0x80074f <xNextTaskUnblockTime>
    1f42:	87 cf       	rjmp	.-242    	; 0x1e52 <xTaskIncrementTick.part.4+0x7e>
    1f44:	90 93 50 07 	sts	0x0750, r25	; 0x800750 <xNextTaskUnblockTime+0x1>
    1f48:	80 93 4f 07 	sts	0x074F, r24	; 0x80074f <xNextTaskUnblockTime>
    1f4c:	82 cf       	rjmp	.-252    	; 0x1e52 <xTaskIncrementTick.part.4+0x7e>
    1f4e:	e0 91 70 07 	lds	r30, 0x0770	; 0x800770 <pxDelayedTaskList>
    1f52:	f0 91 71 07 	lds	r31, 0x0771	; 0x800771 <pxDelayedTaskList+0x1>
    1f56:	05 80       	ldd	r0, Z+5	; 0x05
    1f58:	f6 81       	ldd	r31, Z+6	; 0x06
    1f5a:	e0 2d       	mov	r30, r0
    1f5c:	80 81       	ld	r24, Z
    1f5e:	91 81       	ldd	r25, Z+1	; 0x01
    1f60:	90 93 50 07 	sts	0x0750, r25	; 0x800750 <xNextTaskUnblockTime+0x1>
    1f64:	80 93 4f 07 	sts	0x074F, r24	; 0x80074f <xNextTaskUnblockTime>
    1f68:	6c cf       	rjmp	.-296    	; 0x1e42 <xTaskIncrementTick.part.4+0x6e>

00001f6a <xTaskCreate>:
    1f6a:	4f 92       	push	r4
    1f6c:	5f 92       	push	r5
    1f6e:	6f 92       	push	r6
    1f70:	7f 92       	push	r7
    1f72:	8f 92       	push	r8
    1f74:	9f 92       	push	r9
    1f76:	af 92       	push	r10
    1f78:	bf 92       	push	r11
    1f7a:	cf 92       	push	r12
    1f7c:	df 92       	push	r13
    1f7e:	ef 92       	push	r14
    1f80:	ff 92       	push	r15
    1f82:	0f 93       	push	r16
    1f84:	1f 93       	push	r17
    1f86:	cf 93       	push	r28
    1f88:	df 93       	push	r29
    1f8a:	4c 01       	movw	r8, r24
    1f8c:	6b 01       	movw	r12, r22
    1f8e:	5a 01       	movw	r10, r20
    1f90:	29 01       	movw	r4, r18
    1f92:	ca 01       	movw	r24, r20
    1f94:	0e 94 57 07 	call	0xeae	; 0xeae <pvPortMalloc>
    1f98:	3c 01       	movw	r6, r24
    1f9a:	89 2b       	or	r24, r25
    1f9c:	09 f4       	brne	.+2      	; 0x1fa0 <xTaskCreate+0x36>
    1f9e:	5a c1       	rjmp	.+692    	; 0x2254 <xTaskCreate+0x2ea>
    1fa0:	8e e2       	ldi	r24, 0x2E	; 46
    1fa2:	90 e0       	ldi	r25, 0x00	; 0
    1fa4:	0e 94 57 07 	call	0xeae	; 0xeae <pvPortMalloc>
    1fa8:	ec 01       	movw	r28, r24
    1faa:	89 2b       	or	r24, r25
    1fac:	09 f4       	brne	.+2      	; 0x1fb0 <xTaskCreate+0x46>
    1fae:	4f c1       	rjmp	.+670    	; 0x224e <xTaskCreate+0x2e4>
    1fb0:	78 8e       	std	Y+24, r7	; 0x18
    1fb2:	6f 8a       	std	Y+23, r6	; 0x17
    1fb4:	81 e0       	ldi	r24, 0x01	; 1
    1fb6:	a8 1a       	sub	r10, r24
    1fb8:	b1 08       	sbc	r11, r1
    1fba:	a6 0c       	add	r10, r6
    1fbc:	b7 1c       	adc	r11, r7
    1fbe:	c1 14       	cp	r12, r1
    1fc0:	d1 04       	cpc	r13, r1
    1fc2:	09 f4       	brne	.+2      	; 0x1fc6 <xTaskCreate+0x5c>
    1fc4:	49 c1       	rjmp	.+658    	; 0x2258 <xTaskCreate+0x2ee>
    1fc6:	d6 01       	movw	r26, r12
    1fc8:	8c 91       	ld	r24, X
    1fca:	89 8f       	std	Y+25, r24	; 0x19
    1fcc:	8c 91       	ld	r24, X
    1fce:	88 23       	and	r24, r24
    1fd0:	09 f4       	brne	.+2      	; 0x1fd4 <xTaskCreate+0x6a>
    1fd2:	7e c0       	rjmp	.+252    	; 0x20d0 <xTaskCreate+0x166>
    1fd4:	11 96       	adiw	r26, 0x01	; 1
    1fd6:	8c 91       	ld	r24, X
    1fd8:	11 97       	sbiw	r26, 0x01	; 1
    1fda:	8a 8f       	std	Y+26, r24	; 0x1a
    1fdc:	11 96       	adiw	r26, 0x01	; 1
    1fde:	8c 91       	ld	r24, X
    1fe0:	11 97       	sbiw	r26, 0x01	; 1
    1fe2:	88 23       	and	r24, r24
    1fe4:	09 f4       	brne	.+2      	; 0x1fe8 <xTaskCreate+0x7e>
    1fe6:	74 c0       	rjmp	.+232    	; 0x20d0 <xTaskCreate+0x166>
    1fe8:	12 96       	adiw	r26, 0x02	; 2
    1fea:	8c 91       	ld	r24, X
    1fec:	12 97       	sbiw	r26, 0x02	; 2
    1fee:	8b 8f       	std	Y+27, r24	; 0x1b
    1ff0:	12 96       	adiw	r26, 0x02	; 2
    1ff2:	8c 91       	ld	r24, X
    1ff4:	12 97       	sbiw	r26, 0x02	; 2
    1ff6:	88 23       	and	r24, r24
    1ff8:	09 f4       	brne	.+2      	; 0x1ffc <xTaskCreate+0x92>
    1ffa:	6a c0       	rjmp	.+212    	; 0x20d0 <xTaskCreate+0x166>
    1ffc:	13 96       	adiw	r26, 0x03	; 3
    1ffe:	8c 91       	ld	r24, X
    2000:	13 97       	sbiw	r26, 0x03	; 3
    2002:	8c 8f       	std	Y+28, r24	; 0x1c
    2004:	13 96       	adiw	r26, 0x03	; 3
    2006:	8c 91       	ld	r24, X
    2008:	13 97       	sbiw	r26, 0x03	; 3
    200a:	88 23       	and	r24, r24
    200c:	09 f4       	brne	.+2      	; 0x2010 <xTaskCreate+0xa6>
    200e:	60 c0       	rjmp	.+192    	; 0x20d0 <xTaskCreate+0x166>
    2010:	14 96       	adiw	r26, 0x04	; 4
    2012:	8c 91       	ld	r24, X
    2014:	14 97       	sbiw	r26, 0x04	; 4
    2016:	8d 8f       	std	Y+29, r24	; 0x1d
    2018:	14 96       	adiw	r26, 0x04	; 4
    201a:	8c 91       	ld	r24, X
    201c:	14 97       	sbiw	r26, 0x04	; 4
    201e:	88 23       	and	r24, r24
    2020:	09 f4       	brne	.+2      	; 0x2024 <xTaskCreate+0xba>
    2022:	56 c0       	rjmp	.+172    	; 0x20d0 <xTaskCreate+0x166>
    2024:	15 96       	adiw	r26, 0x05	; 5
    2026:	8c 91       	ld	r24, X
    2028:	15 97       	sbiw	r26, 0x05	; 5
    202a:	8e 8f       	std	Y+30, r24	; 0x1e
    202c:	15 96       	adiw	r26, 0x05	; 5
    202e:	8c 91       	ld	r24, X
    2030:	15 97       	sbiw	r26, 0x05	; 5
    2032:	88 23       	and	r24, r24
    2034:	09 f4       	brne	.+2      	; 0x2038 <xTaskCreate+0xce>
    2036:	4c c0       	rjmp	.+152    	; 0x20d0 <xTaskCreate+0x166>
    2038:	16 96       	adiw	r26, 0x06	; 6
    203a:	8c 91       	ld	r24, X
    203c:	16 97       	sbiw	r26, 0x06	; 6
    203e:	8f 8f       	std	Y+31, r24	; 0x1f
    2040:	16 96       	adiw	r26, 0x06	; 6
    2042:	8c 91       	ld	r24, X
    2044:	16 97       	sbiw	r26, 0x06	; 6
    2046:	88 23       	and	r24, r24
    2048:	09 f4       	brne	.+2      	; 0x204c <xTaskCreate+0xe2>
    204a:	42 c0       	rjmp	.+132    	; 0x20d0 <xTaskCreate+0x166>
    204c:	17 96       	adiw	r26, 0x07	; 7
    204e:	8c 91       	ld	r24, X
    2050:	17 97       	sbiw	r26, 0x07	; 7
    2052:	88 a3       	std	Y+32, r24	; 0x20
    2054:	17 96       	adiw	r26, 0x07	; 7
    2056:	8c 91       	ld	r24, X
    2058:	17 97       	sbiw	r26, 0x07	; 7
    205a:	88 23       	and	r24, r24
    205c:	c9 f1       	breq	.+114    	; 0x20d0 <xTaskCreate+0x166>
    205e:	18 96       	adiw	r26, 0x08	; 8
    2060:	8c 91       	ld	r24, X
    2062:	18 97       	sbiw	r26, 0x08	; 8
    2064:	89 a3       	std	Y+33, r24	; 0x21
    2066:	18 96       	adiw	r26, 0x08	; 8
    2068:	8c 91       	ld	r24, X
    206a:	18 97       	sbiw	r26, 0x08	; 8
    206c:	88 23       	and	r24, r24
    206e:	81 f1       	breq	.+96     	; 0x20d0 <xTaskCreate+0x166>
    2070:	19 96       	adiw	r26, 0x09	; 9
    2072:	8c 91       	ld	r24, X
    2074:	19 97       	sbiw	r26, 0x09	; 9
    2076:	8a a3       	std	Y+34, r24	; 0x22
    2078:	19 96       	adiw	r26, 0x09	; 9
    207a:	8c 91       	ld	r24, X
    207c:	19 97       	sbiw	r26, 0x09	; 9
    207e:	88 23       	and	r24, r24
    2080:	39 f1       	breq	.+78     	; 0x20d0 <xTaskCreate+0x166>
    2082:	1a 96       	adiw	r26, 0x0a	; 10
    2084:	8c 91       	ld	r24, X
    2086:	1a 97       	sbiw	r26, 0x0a	; 10
    2088:	8b a3       	std	Y+35, r24	; 0x23
    208a:	1a 96       	adiw	r26, 0x0a	; 10
    208c:	8c 91       	ld	r24, X
    208e:	1a 97       	sbiw	r26, 0x0a	; 10
    2090:	88 23       	and	r24, r24
    2092:	f1 f0       	breq	.+60     	; 0x20d0 <xTaskCreate+0x166>
    2094:	1b 96       	adiw	r26, 0x0b	; 11
    2096:	8c 91       	ld	r24, X
    2098:	1b 97       	sbiw	r26, 0x0b	; 11
    209a:	8c a3       	std	Y+36, r24	; 0x24
    209c:	1b 96       	adiw	r26, 0x0b	; 11
    209e:	8c 91       	ld	r24, X
    20a0:	1b 97       	sbiw	r26, 0x0b	; 11
    20a2:	88 23       	and	r24, r24
    20a4:	a9 f0       	breq	.+42     	; 0x20d0 <xTaskCreate+0x166>
    20a6:	1c 96       	adiw	r26, 0x0c	; 12
    20a8:	8c 91       	ld	r24, X
    20aa:	1c 97       	sbiw	r26, 0x0c	; 12
    20ac:	8d a3       	std	Y+37, r24	; 0x25
    20ae:	1c 96       	adiw	r26, 0x0c	; 12
    20b0:	8c 91       	ld	r24, X
    20b2:	1c 97       	sbiw	r26, 0x0c	; 12
    20b4:	88 23       	and	r24, r24
    20b6:	61 f0       	breq	.+24     	; 0x20d0 <xTaskCreate+0x166>
    20b8:	1d 96       	adiw	r26, 0x0d	; 13
    20ba:	8c 91       	ld	r24, X
    20bc:	1d 97       	sbiw	r26, 0x0d	; 13
    20be:	8e a3       	std	Y+38, r24	; 0x26
    20c0:	1d 96       	adiw	r26, 0x0d	; 13
    20c2:	8c 91       	ld	r24, X
    20c4:	1d 97       	sbiw	r26, 0x0d	; 13
    20c6:	88 23       	and	r24, r24
    20c8:	19 f0       	breq	.+6      	; 0x20d0 <xTaskCreate+0x166>
    20ca:	1e 96       	adiw	r26, 0x0e	; 14
    20cc:	8c 91       	ld	r24, X
    20ce:	8f a3       	std	Y+39, r24	; 0x27
    20d0:	18 a6       	std	Y+40, r1	; 0x28
    20d2:	08 30       	cpi	r16, 0x08	; 8
    20d4:	08 f0       	brcs	.+2      	; 0x20d8 <xTaskCreate+0x16e>
    20d6:	b5 c0       	rjmp	.+362    	; 0x2242 <xTaskCreate+0x2d8>
    20d8:	0e 8b       	std	Y+22, r16	; 0x16
    20da:	6e 01       	movw	r12, r28
    20dc:	b2 e0       	ldi	r27, 0x02	; 2
    20de:	cb 0e       	add	r12, r27
    20e0:	d1 1c       	adc	r13, r1
    20e2:	c6 01       	movw	r24, r12
    20e4:	0e 94 db 06 	call	0xdb6	; 0xdb6 <vListInitialiseItem>
    20e8:	ce 01       	movw	r24, r28
    20ea:	0c 96       	adiw	r24, 0x0c	; 12
    20ec:	0e 94 db 06 	call	0xdb6	; 0xdb6 <vListInitialiseItem>
    20f0:	d9 87       	std	Y+9, r29	; 0x09
    20f2:	c8 87       	std	Y+8, r28	; 0x08
    20f4:	88 e0       	ldi	r24, 0x08	; 8
    20f6:	90 e0       	ldi	r25, 0x00	; 0
    20f8:	80 1b       	sub	r24, r16
    20fa:	91 09       	sbc	r25, r1
    20fc:	9d 87       	std	Y+13, r25	; 0x0d
    20fe:	8c 87       	std	Y+12, r24	; 0x0c
    2100:	db 8b       	std	Y+19, r29	; 0x13
    2102:	ca 8b       	std	Y+18, r28	; 0x12
    2104:	84 e0       	ldi	r24, 0x04	; 4
    2106:	fe 01       	movw	r30, r28
    2108:	b9 96       	adiw	r30, 0x29	; 41
    210a:	df 01       	movw	r26, r30
    210c:	1d 92       	st	X+, r1
    210e:	8a 95       	dec	r24
    2110:	e9 f7       	brne	.-6      	; 0x210c <xTaskCreate+0x1a2>
    2112:	1d a6       	std	Y+45, r1	; 0x2d
    2114:	a2 01       	movw	r20, r4
    2116:	b4 01       	movw	r22, r8
    2118:	c5 01       	movw	r24, r10
    211a:	0e 94 1e 08 	call	0x103c	; 0x103c <pxPortInitialiseStack>
    211e:	99 83       	std	Y+1, r25	; 0x01
    2120:	88 83       	st	Y, r24
    2122:	e1 14       	cp	r14, r1
    2124:	f1 04       	cpc	r15, r1
    2126:	19 f0       	breq	.+6      	; 0x212e <xTaskCreate+0x1c4>
    2128:	f7 01       	movw	r30, r14
    212a:	d1 83       	std	Z+1, r29	; 0x01
    212c:	c0 83       	st	Z, r28
    212e:	0f b6       	in	r0, 0x3f	; 63
    2130:	f8 94       	cli
    2132:	0f 92       	push	r0
    2134:	80 91 5a 07 	lds	r24, 0x075A	; 0x80075a <uxCurrentNumberOfTasks>
    2138:	8f 5f       	subi	r24, 0xFF	; 255
    213a:	80 93 5a 07 	sts	0x075A, r24	; 0x80075a <uxCurrentNumberOfTasks>
    213e:	80 91 cc 07 	lds	r24, 0x07CC	; 0x8007cc <pxCurrentTCB>
    2142:	90 91 cd 07 	lds	r25, 0x07CD	; 0x8007cd <pxCurrentTCB+0x1>
    2146:	89 2b       	or	r24, r25
    2148:	89 f0       	breq	.+34     	; 0x216c <xTaskCreate+0x202>
    214a:	80 91 56 07 	lds	r24, 0x0756	; 0x800756 <xSchedulerRunning>
    214e:	81 11       	cpse	r24, r1
    2150:	3c c0       	rjmp	.+120    	; 0x21ca <xTaskCreate+0x260>
    2152:	e0 91 cc 07 	lds	r30, 0x07CC	; 0x8007cc <pxCurrentTCB>
    2156:	f0 91 cd 07 	lds	r31, 0x07CD	; 0x8007cd <pxCurrentTCB+0x1>
    215a:	8e 89       	ldd	r24, Y+22	; 0x16
    215c:	96 89       	ldd	r25, Z+22	; 0x16
    215e:	89 17       	cp	r24, r25
    2160:	a8 f1       	brcs	.+106    	; 0x21cc <xTaskCreate+0x262>
    2162:	d0 93 cd 07 	sts	0x07CD, r29	; 0x8007cd <pxCurrentTCB+0x1>
    2166:	c0 93 cc 07 	sts	0x07CC, r28	; 0x8007cc <pxCurrentTCB>
    216a:	30 c0       	rjmp	.+96     	; 0x21cc <xTaskCreate+0x262>
    216c:	d0 93 cd 07 	sts	0x07CD, r29	; 0x8007cd <pxCurrentTCB+0x1>
    2170:	c0 93 cc 07 	sts	0x07CC, r28	; 0x8007cc <pxCurrentTCB>
    2174:	80 91 5a 07 	lds	r24, 0x075A	; 0x80075a <uxCurrentNumberOfTasks>
    2178:	81 30       	cpi	r24, 0x01	; 1
    217a:	39 f5       	brne	.+78     	; 0x21ca <xTaskCreate+0x260>
    217c:	04 e8       	ldi	r16, 0x84	; 132
    217e:	17 e0       	ldi	r17, 0x07	; 7
    2180:	c8 01       	movw	r24, r16
    2182:	0e 94 cd 06 	call	0xd9a	; 0xd9a <vListInitialise>
    2186:	07 5f       	subi	r16, 0xF7	; 247
    2188:	1f 4f       	sbci	r17, 0xFF	; 255
    218a:	f7 e0       	ldi	r31, 0x07	; 7
    218c:	0c 3c       	cpi	r16, 0xCC	; 204
    218e:	1f 07       	cpc	r17, r31
    2190:	b9 f7       	brne	.-18     	; 0x2180 <xTaskCreate+0x216>
    2192:	8b e7       	ldi	r24, 0x7B	; 123
    2194:	97 e0       	ldi	r25, 0x07	; 7
    2196:	0e 94 cd 06 	call	0xd9a	; 0xd9a <vListInitialise>
    219a:	82 e7       	ldi	r24, 0x72	; 114
    219c:	97 e0       	ldi	r25, 0x07	; 7
    219e:	0e 94 cd 06 	call	0xd9a	; 0xd9a <vListInitialise>
    21a2:	85 e6       	ldi	r24, 0x65	; 101
    21a4:	97 e0       	ldi	r25, 0x07	; 7
    21a6:	0e 94 cd 06 	call	0xd9a	; 0xd9a <vListInitialise>
    21aa:	8c e5       	ldi	r24, 0x5C	; 92
    21ac:	97 e0       	ldi	r25, 0x07	; 7
    21ae:	0e 94 cd 06 	call	0xd9a	; 0xd9a <vListInitialise>
    21b2:	8b e7       	ldi	r24, 0x7B	; 123
    21b4:	97 e0       	ldi	r25, 0x07	; 7
    21b6:	90 93 71 07 	sts	0x0771, r25	; 0x800771 <pxDelayedTaskList+0x1>
    21ba:	80 93 70 07 	sts	0x0770, r24	; 0x800770 <pxDelayedTaskList>
    21be:	82 e7       	ldi	r24, 0x72	; 114
    21c0:	97 e0       	ldi	r25, 0x07	; 7
    21c2:	90 93 6f 07 	sts	0x076F, r25	; 0x80076f <pxOverflowDelayedTaskList+0x1>
    21c6:	80 93 6e 07 	sts	0x076E, r24	; 0x80076e <pxOverflowDelayedTaskList>
    21ca:	8e 89       	ldd	r24, Y+22	; 0x16
    21cc:	90 91 51 07 	lds	r25, 0x0751	; 0x800751 <uxTaskNumber>
    21d0:	9f 5f       	subi	r25, 0xFF	; 255
    21d2:	90 93 51 07 	sts	0x0751, r25	; 0x800751 <uxTaskNumber>
    21d6:	90 91 57 07 	lds	r25, 0x0757	; 0x800757 <uxTopReadyPriority>
    21da:	98 17       	cp	r25, r24
    21dc:	78 f1       	brcs	.+94     	; 0x223c <xTaskCreate+0x2d2>
    21de:	90 e0       	ldi	r25, 0x00	; 0
    21e0:	9c 01       	movw	r18, r24
    21e2:	22 0f       	add	r18, r18
    21e4:	33 1f       	adc	r19, r19
    21e6:	22 0f       	add	r18, r18
    21e8:	33 1f       	adc	r19, r19
    21ea:	22 0f       	add	r18, r18
    21ec:	33 1f       	adc	r19, r19
    21ee:	82 0f       	add	r24, r18
    21f0:	93 1f       	adc	r25, r19
    21f2:	b6 01       	movw	r22, r12
    21f4:	8c 57       	subi	r24, 0x7C	; 124
    21f6:	98 4f       	sbci	r25, 0xF8	; 248
    21f8:	0e 94 df 06 	call	0xdbe	; 0xdbe <vListInsertEnd>
    21fc:	0f 90       	pop	r0
    21fe:	0f be       	out	0x3f, r0	; 63
    2200:	80 91 56 07 	lds	r24, 0x0756	; 0x800756 <xSchedulerRunning>
    2204:	88 23       	and	r24, r24
    2206:	41 f0       	breq	.+16     	; 0x2218 <xTaskCreate+0x2ae>
    2208:	e0 91 cc 07 	lds	r30, 0x07CC	; 0x8007cc <pxCurrentTCB>
    220c:	f0 91 cd 07 	lds	r31, 0x07CD	; 0x8007cd <pxCurrentTCB+0x1>
    2210:	96 89       	ldd	r25, Z+22	; 0x16
    2212:	8e 89       	ldd	r24, Y+22	; 0x16
    2214:	98 17       	cp	r25, r24
    2216:	b8 f0       	brcs	.+46     	; 0x2246 <xTaskCreate+0x2dc>
    2218:	81 e0       	ldi	r24, 0x01	; 1
    221a:	df 91       	pop	r29
    221c:	cf 91       	pop	r28
    221e:	1f 91       	pop	r17
    2220:	0f 91       	pop	r16
    2222:	ff 90       	pop	r15
    2224:	ef 90       	pop	r14
    2226:	df 90       	pop	r13
    2228:	cf 90       	pop	r12
    222a:	bf 90       	pop	r11
    222c:	af 90       	pop	r10
    222e:	9f 90       	pop	r9
    2230:	8f 90       	pop	r8
    2232:	7f 90       	pop	r7
    2234:	6f 90       	pop	r6
    2236:	5f 90       	pop	r5
    2238:	4f 90       	pop	r4
    223a:	08 95       	ret
    223c:	80 93 57 07 	sts	0x0757, r24	; 0x800757 <uxTopReadyPriority>
    2240:	ce cf       	rjmp	.-100    	; 0x21de <xTaskCreate+0x274>
    2242:	07 e0       	ldi	r16, 0x07	; 7
    2244:	49 cf       	rjmp	.-366    	; 0x20d8 <xTaskCreate+0x16e>
    2246:	0e 94 67 08 	call	0x10ce	; 0x10ce <vPortYield>
    224a:	81 e0       	ldi	r24, 0x01	; 1
    224c:	e6 cf       	rjmp	.-52     	; 0x221a <xTaskCreate+0x2b0>
    224e:	c3 01       	movw	r24, r6
    2250:	0e 94 ee 07 	call	0xfdc	; 0xfdc <vPortFree>
    2254:	8f ef       	ldi	r24, 0xFF	; 255
    2256:	e1 cf       	rjmp	.-62     	; 0x221a <xTaskCreate+0x2b0>
    2258:	19 8e       	std	Y+25, r1	; 0x19
    225a:	3b cf       	rjmp	.-394    	; 0x20d2 <xTaskCreate+0x168>

0000225c <vTaskDelete>:
    225c:	0f 93       	push	r16
    225e:	1f 93       	push	r17
    2260:	cf 93       	push	r28
    2262:	df 93       	push	r29
    2264:	ec 01       	movw	r28, r24
    2266:	0f b6       	in	r0, 0x3f	; 63
    2268:	f8 94       	cli
    226a:	0f 92       	push	r0
    226c:	89 2b       	or	r24, r25
    226e:	09 f4       	brne	.+2      	; 0x2272 <vTaskDelete+0x16>
    2270:	5e c0       	rjmp	.+188    	; 0x232e <vTaskDelete+0xd2>
    2272:	8e 01       	movw	r16, r28
    2274:	0e 5f       	subi	r16, 0xFE	; 254
    2276:	1f 4f       	sbci	r17, 0xFF	; 255
    2278:	c8 01       	movw	r24, r16
    227a:	0e 94 31 07 	call	0xe62	; 0xe62 <uxListRemove>
    227e:	8c 89       	ldd	r24, Y+20	; 0x14
    2280:	9d 89       	ldd	r25, Y+21	; 0x15
    2282:	89 2b       	or	r24, r25
    2284:	21 f0       	breq	.+8      	; 0x228e <vTaskDelete+0x32>
    2286:	ce 01       	movw	r24, r28
    2288:	0c 96       	adiw	r24, 0x0c	; 12
    228a:	0e 94 31 07 	call	0xe62	; 0xe62 <uxListRemove>
    228e:	80 91 51 07 	lds	r24, 0x0751	; 0x800751 <uxTaskNumber>
    2292:	8f 5f       	subi	r24, 0xFF	; 255
    2294:	80 93 51 07 	sts	0x0751, r24	; 0x800751 <uxTaskNumber>
    2298:	80 91 cc 07 	lds	r24, 0x07CC	; 0x8007cc <pxCurrentTCB>
    229c:	90 91 cd 07 	lds	r25, 0x07CD	; 0x8007cd <pxCurrentTCB+0x1>
    22a0:	c8 17       	cp	r28, r24
    22a2:	d9 07       	cpc	r29, r25
    22a4:	c9 f1       	breq	.+114    	; 0x2318 <vTaskDelete+0xbc>
    22a6:	80 91 5a 07 	lds	r24, 0x075A	; 0x80075a <uxCurrentNumberOfTasks>
    22aa:	81 50       	subi	r24, 0x01	; 1
    22ac:	80 93 5a 07 	sts	0x075A, r24	; 0x80075a <uxCurrentNumberOfTasks>
    22b0:	8f 89       	ldd	r24, Y+23	; 0x17
    22b2:	98 8d       	ldd	r25, Y+24	; 0x18
    22b4:	0e 94 ee 07 	call	0xfdc	; 0xfdc <vPortFree>
    22b8:	ce 01       	movw	r24, r28
    22ba:	0e 94 ee 07 	call	0xfdc	; 0xfdc <vPortFree>
    22be:	e0 91 70 07 	lds	r30, 0x0770	; 0x800770 <pxDelayedTaskList>
    22c2:	f0 91 71 07 	lds	r31, 0x0771	; 0x800771 <pxDelayedTaskList+0x1>
    22c6:	80 81       	ld	r24, Z
    22c8:	81 11       	cpse	r24, r1
    22ca:	18 c0       	rjmp	.+48     	; 0x22fc <vTaskDelete+0xa0>
    22cc:	8f ef       	ldi	r24, 0xFF	; 255
    22ce:	9f ef       	ldi	r25, 0xFF	; 255
    22d0:	90 93 50 07 	sts	0x0750, r25	; 0x800750 <xNextTaskUnblockTime+0x1>
    22d4:	80 93 4f 07 	sts	0x074F, r24	; 0x80074f <xNextTaskUnblockTime>
    22d8:	0f 90       	pop	r0
    22da:	0f be       	out	0x3f, r0	; 63
    22dc:	80 91 56 07 	lds	r24, 0x0756	; 0x800756 <xSchedulerRunning>
    22e0:	88 23       	and	r24, r24
    22e2:	39 f0       	breq	.+14     	; 0x22f2 <vTaskDelete+0x96>
    22e4:	80 91 cc 07 	lds	r24, 0x07CC	; 0x8007cc <pxCurrentTCB>
    22e8:	90 91 cd 07 	lds	r25, 0x07CD	; 0x8007cd <pxCurrentTCB+0x1>
    22ec:	c8 17       	cp	r28, r24
    22ee:	d9 07       	cpc	r29, r25
    22f0:	19 f1       	breq	.+70     	; 0x2338 <vTaskDelete+0xdc>
    22f2:	df 91       	pop	r29
    22f4:	cf 91       	pop	r28
    22f6:	1f 91       	pop	r17
    22f8:	0f 91       	pop	r16
    22fa:	08 95       	ret
    22fc:	e0 91 70 07 	lds	r30, 0x0770	; 0x800770 <pxDelayedTaskList>
    2300:	f0 91 71 07 	lds	r31, 0x0771	; 0x800771 <pxDelayedTaskList+0x1>
    2304:	05 80       	ldd	r0, Z+5	; 0x05
    2306:	f6 81       	ldd	r31, Z+6	; 0x06
    2308:	e0 2d       	mov	r30, r0
    230a:	80 81       	ld	r24, Z
    230c:	91 81       	ldd	r25, Z+1	; 0x01
    230e:	90 93 50 07 	sts	0x0750, r25	; 0x800750 <xNextTaskUnblockTime+0x1>
    2312:	80 93 4f 07 	sts	0x074F, r24	; 0x80074f <xNextTaskUnblockTime>
    2316:	e0 cf       	rjmp	.-64     	; 0x22d8 <vTaskDelete+0x7c>
    2318:	b8 01       	movw	r22, r16
    231a:	8c e5       	ldi	r24, 0x5C	; 92
    231c:	97 e0       	ldi	r25, 0x07	; 7
    231e:	0e 94 df 06 	call	0xdbe	; 0xdbe <vListInsertEnd>
    2322:	80 91 5b 07 	lds	r24, 0x075B	; 0x80075b <uxDeletedTasksWaitingCleanUp>
    2326:	8f 5f       	subi	r24, 0xFF	; 255
    2328:	80 93 5b 07 	sts	0x075B, r24	; 0x80075b <uxDeletedTasksWaitingCleanUp>
    232c:	d5 cf       	rjmp	.-86     	; 0x22d8 <vTaskDelete+0x7c>
    232e:	c0 91 cc 07 	lds	r28, 0x07CC	; 0x8007cc <pxCurrentTCB>
    2332:	d0 91 cd 07 	lds	r29, 0x07CD	; 0x8007cd <pxCurrentTCB+0x1>
    2336:	9d cf       	rjmp	.-198    	; 0x2272 <vTaskDelete+0x16>
    2338:	0e 94 67 08 	call	0x10ce	; 0x10ce <vPortYield>
    233c:	da cf       	rjmp	.-76     	; 0x22f2 <vTaskDelete+0x96>

0000233e <vTaskStartScheduler>:
    233e:	ef 92       	push	r14
    2340:	ff 92       	push	r15
    2342:	0f 93       	push	r16
    2344:	1f 93       	push	r17
    2346:	cf 93       	push	r28
    2348:	df 93       	push	r29
    234a:	85 e5       	ldi	r24, 0x55	; 85
    234c:	90 e0       	ldi	r25, 0x00	; 0
    234e:	0e 94 57 07 	call	0xeae	; 0xeae <pvPortMalloc>
    2352:	8c 01       	movw	r16, r24
    2354:	89 2b       	or	r24, r25
    2356:	09 f4       	brne	.+2      	; 0x235a <vTaskStartScheduler+0x1c>
    2358:	d9 c0       	rjmp	.+434    	; 0x250c <vTaskStartScheduler+0x1ce>
    235a:	8e e2       	ldi	r24, 0x2E	; 46
    235c:	90 e0       	ldi	r25, 0x00	; 0
    235e:	0e 94 57 07 	call	0xeae	; 0xeae <pvPortMalloc>
    2362:	ec 01       	movw	r28, r24
    2364:	89 2b       	or	r24, r25
    2366:	09 f4       	brne	.+2      	; 0x236a <vTaskStartScheduler+0x2c>
    2368:	c8 c0       	rjmp	.+400    	; 0x24fa <vTaskStartScheduler+0x1bc>
    236a:	18 8f       	std	Y+24, r17	; 0x18
    236c:	0f 8b       	std	Y+23, r16	; 0x17
    236e:	89 e4       	ldi	r24, 0x49	; 73
    2370:	89 8f       	std	Y+25, r24	; 0x19
    2372:	84 e4       	ldi	r24, 0x44	; 68
    2374:	8a 8f       	std	Y+26, r24	; 0x1a
    2376:	8c e4       	ldi	r24, 0x4C	; 76
    2378:	8b 8f       	std	Y+27, r24	; 0x1b
    237a:	85 e4       	ldi	r24, 0x45	; 69
    237c:	8c 8f       	std	Y+28, r24	; 0x1c
    237e:	1d 8e       	std	Y+29, r1	; 0x1d
    2380:	18 a6       	std	Y+40, r1	; 0x28
    2382:	1e 8a       	std	Y+22, r1	; 0x16
    2384:	7e 01       	movw	r14, r28
    2386:	82 e0       	ldi	r24, 0x02	; 2
    2388:	e8 0e       	add	r14, r24
    238a:	f1 1c       	adc	r15, r1
    238c:	c7 01       	movw	r24, r14
    238e:	0e 94 db 06 	call	0xdb6	; 0xdb6 <vListInitialiseItem>
    2392:	ce 01       	movw	r24, r28
    2394:	0c 96       	adiw	r24, 0x0c	; 12
    2396:	0e 94 db 06 	call	0xdb6	; 0xdb6 <vListInitialiseItem>
    239a:	d9 87       	std	Y+9, r29	; 0x09
    239c:	c8 87       	std	Y+8, r28	; 0x08
    239e:	88 e0       	ldi	r24, 0x08	; 8
    23a0:	90 e0       	ldi	r25, 0x00	; 0
    23a2:	9d 87       	std	Y+13, r25	; 0x0d
    23a4:	8c 87       	std	Y+12, r24	; 0x0c
    23a6:	db 8b       	std	Y+19, r29	; 0x13
    23a8:	ca 8b       	std	Y+18, r28	; 0x12
    23aa:	84 e0       	ldi	r24, 0x04	; 4
    23ac:	fe 01       	movw	r30, r28
    23ae:	b9 96       	adiw	r30, 0x29	; 41
    23b0:	df 01       	movw	r26, r30
    23b2:	1d 92       	st	X+, r1
    23b4:	8a 95       	dec	r24
    23b6:	e9 f7       	brne	.-6      	; 0x23b2 <vTaskStartScheduler+0x74>
    23b8:	1d a6       	std	Y+45, r1	; 0x2d
    23ba:	40 e0       	ldi	r20, 0x00	; 0
    23bc:	50 e0       	ldi	r21, 0x00	; 0
    23be:	6e eb       	ldi	r22, 0xBE	; 190
    23c0:	7e e0       	ldi	r23, 0x0E	; 14
    23c2:	c8 01       	movw	r24, r16
    23c4:	8c 5a       	subi	r24, 0xAC	; 172
    23c6:	9f 4f       	sbci	r25, 0xFF	; 255
    23c8:	0e 94 1e 08 	call	0x103c	; 0x103c <pxPortInitialiseStack>
    23cc:	99 83       	std	Y+1, r25	; 0x01
    23ce:	88 83       	st	Y, r24
    23d0:	d0 93 4e 07 	sts	0x074E, r29	; 0x80074e <xIdleTaskHandle+0x1>
    23d4:	c0 93 4d 07 	sts	0x074D, r28	; 0x80074d <xIdleTaskHandle>
    23d8:	0f b6       	in	r0, 0x3f	; 63
    23da:	f8 94       	cli
    23dc:	0f 92       	push	r0
    23de:	80 91 5a 07 	lds	r24, 0x075A	; 0x80075a <uxCurrentNumberOfTasks>
    23e2:	8f 5f       	subi	r24, 0xFF	; 255
    23e4:	80 93 5a 07 	sts	0x075A, r24	; 0x80075a <uxCurrentNumberOfTasks>
    23e8:	80 91 cc 07 	lds	r24, 0x07CC	; 0x8007cc <pxCurrentTCB>
    23ec:	90 91 cd 07 	lds	r25, 0x07CD	; 0x8007cd <pxCurrentTCB+0x1>
    23f0:	89 2b       	or	r24, r25
    23f2:	89 f0       	breq	.+34     	; 0x2416 <vTaskStartScheduler+0xd8>
    23f4:	80 91 56 07 	lds	r24, 0x0756	; 0x800756 <xSchedulerRunning>
    23f8:	81 11       	cpse	r24, r1
    23fa:	3c c0       	rjmp	.+120    	; 0x2474 <vTaskStartScheduler+0x136>
    23fc:	e0 91 cc 07 	lds	r30, 0x07CC	; 0x8007cc <pxCurrentTCB>
    2400:	f0 91 cd 07 	lds	r31, 0x07CD	; 0x8007cd <pxCurrentTCB+0x1>
    2404:	8e 89       	ldd	r24, Y+22	; 0x16
    2406:	96 89       	ldd	r25, Z+22	; 0x16
    2408:	89 17       	cp	r24, r25
    240a:	a8 f1       	brcs	.+106    	; 0x2476 <vTaskStartScheduler+0x138>
    240c:	d0 93 cd 07 	sts	0x07CD, r29	; 0x8007cd <pxCurrentTCB+0x1>
    2410:	c0 93 cc 07 	sts	0x07CC, r28	; 0x8007cc <pxCurrentTCB>
    2414:	30 c0       	rjmp	.+96     	; 0x2476 <vTaskStartScheduler+0x138>
    2416:	d0 93 cd 07 	sts	0x07CD, r29	; 0x8007cd <pxCurrentTCB+0x1>
    241a:	c0 93 cc 07 	sts	0x07CC, r28	; 0x8007cc <pxCurrentTCB>
    241e:	80 91 5a 07 	lds	r24, 0x075A	; 0x80075a <uxCurrentNumberOfTasks>
    2422:	81 30       	cpi	r24, 0x01	; 1
    2424:	39 f5       	brne	.+78     	; 0x2474 <vTaskStartScheduler+0x136>
    2426:	04 e8       	ldi	r16, 0x84	; 132
    2428:	17 e0       	ldi	r17, 0x07	; 7
    242a:	c8 01       	movw	r24, r16
    242c:	0e 94 cd 06 	call	0xd9a	; 0xd9a <vListInitialise>
    2430:	07 5f       	subi	r16, 0xF7	; 247
    2432:	1f 4f       	sbci	r17, 0xFF	; 255
    2434:	b7 e0       	ldi	r27, 0x07	; 7
    2436:	0c 3c       	cpi	r16, 0xCC	; 204
    2438:	1b 07       	cpc	r17, r27
    243a:	b9 f7       	brne	.-18     	; 0x242a <vTaskStartScheduler+0xec>
    243c:	8b e7       	ldi	r24, 0x7B	; 123
    243e:	97 e0       	ldi	r25, 0x07	; 7
    2440:	0e 94 cd 06 	call	0xd9a	; 0xd9a <vListInitialise>
    2444:	82 e7       	ldi	r24, 0x72	; 114
    2446:	97 e0       	ldi	r25, 0x07	; 7
    2448:	0e 94 cd 06 	call	0xd9a	; 0xd9a <vListInitialise>
    244c:	85 e6       	ldi	r24, 0x65	; 101
    244e:	97 e0       	ldi	r25, 0x07	; 7
    2450:	0e 94 cd 06 	call	0xd9a	; 0xd9a <vListInitialise>
    2454:	8c e5       	ldi	r24, 0x5C	; 92
    2456:	97 e0       	ldi	r25, 0x07	; 7
    2458:	0e 94 cd 06 	call	0xd9a	; 0xd9a <vListInitialise>
    245c:	8b e7       	ldi	r24, 0x7B	; 123
    245e:	97 e0       	ldi	r25, 0x07	; 7
    2460:	90 93 71 07 	sts	0x0771, r25	; 0x800771 <pxDelayedTaskList+0x1>
    2464:	80 93 70 07 	sts	0x0770, r24	; 0x800770 <pxDelayedTaskList>
    2468:	82 e7       	ldi	r24, 0x72	; 114
    246a:	97 e0       	ldi	r25, 0x07	; 7
    246c:	90 93 6f 07 	sts	0x076F, r25	; 0x80076f <pxOverflowDelayedTaskList+0x1>
    2470:	80 93 6e 07 	sts	0x076E, r24	; 0x80076e <pxOverflowDelayedTaskList>
    2474:	8e 89       	ldd	r24, Y+22	; 0x16
    2476:	90 91 51 07 	lds	r25, 0x0751	; 0x800751 <uxTaskNumber>
    247a:	9f 5f       	subi	r25, 0xFF	; 255
    247c:	90 93 51 07 	sts	0x0751, r25	; 0x800751 <uxTaskNumber>
    2480:	90 91 57 07 	lds	r25, 0x0757	; 0x800757 <uxTopReadyPriority>
    2484:	98 17       	cp	r25, r24
    2486:	98 f1       	brcs	.+102    	; 0x24ee <vTaskStartScheduler+0x1b0>
    2488:	90 e0       	ldi	r25, 0x00	; 0
    248a:	9c 01       	movw	r18, r24
    248c:	22 0f       	add	r18, r18
    248e:	33 1f       	adc	r19, r19
    2490:	22 0f       	add	r18, r18
    2492:	33 1f       	adc	r19, r19
    2494:	22 0f       	add	r18, r18
    2496:	33 1f       	adc	r19, r19
    2498:	82 0f       	add	r24, r18
    249a:	93 1f       	adc	r25, r19
    249c:	b7 01       	movw	r22, r14
    249e:	8c 57       	subi	r24, 0x7C	; 124
    24a0:	98 4f       	sbci	r25, 0xF8	; 248
    24a2:	0e 94 df 06 	call	0xdbe	; 0xdbe <vListInsertEnd>
    24a6:	0f 90       	pop	r0
    24a8:	0f be       	out	0x3f, r0	; 63
    24aa:	80 91 56 07 	lds	r24, 0x0756	; 0x800756 <xSchedulerRunning>
    24ae:	88 23       	and	r24, r24
    24b0:	41 f0       	breq	.+16     	; 0x24c2 <vTaskStartScheduler+0x184>
    24b2:	e0 91 cc 07 	lds	r30, 0x07CC	; 0x8007cc <pxCurrentTCB>
    24b6:	f0 91 cd 07 	lds	r31, 0x07CD	; 0x8007cd <pxCurrentTCB+0x1>
    24ba:	96 89       	ldd	r25, Z+22	; 0x16
    24bc:	8e 89       	ldd	r24, Y+22	; 0x16
    24be:	98 17       	cp	r25, r24
    24c0:	c8 f0       	brcs	.+50     	; 0x24f4 <vTaskStartScheduler+0x1b6>
    24c2:	f8 94       	cli
    24c4:	8f ef       	ldi	r24, 0xFF	; 255
    24c6:	9f ef       	ldi	r25, 0xFF	; 255
    24c8:	90 93 50 07 	sts	0x0750, r25	; 0x800750 <xNextTaskUnblockTime+0x1>
    24cc:	80 93 4f 07 	sts	0x074F, r24	; 0x80074f <xNextTaskUnblockTime>
    24d0:	81 e0       	ldi	r24, 0x01	; 1
    24d2:	80 93 56 07 	sts	0x0756, r24	; 0x800756 <xSchedulerRunning>
    24d6:	10 92 59 07 	sts	0x0759, r1	; 0x800759 <xTickCount+0x1>
    24da:	10 92 58 07 	sts	0x0758, r1	; 0x800758 <xTickCount>
    24de:	df 91       	pop	r29
    24e0:	cf 91       	pop	r28
    24e2:	1f 91       	pop	r17
    24e4:	0f 91       	pop	r16
    24e6:	ff 90       	pop	r15
    24e8:	ef 90       	pop	r14
    24ea:	0c 94 2f 08 	jmp	0x105e	; 0x105e <xPortStartScheduler>
    24ee:	80 93 57 07 	sts	0x0757, r24	; 0x800757 <uxTopReadyPriority>
    24f2:	ca cf       	rjmp	.-108    	; 0x2488 <vTaskStartScheduler+0x14a>
    24f4:	0e 94 67 08 	call	0x10ce	; 0x10ce <vPortYield>
    24f8:	e4 cf       	rjmp	.-56     	; 0x24c2 <vTaskStartScheduler+0x184>
    24fa:	c8 01       	movw	r24, r16
    24fc:	df 91       	pop	r29
    24fe:	cf 91       	pop	r28
    2500:	1f 91       	pop	r17
    2502:	0f 91       	pop	r16
    2504:	ff 90       	pop	r15
    2506:	ef 90       	pop	r14
    2508:	0c 94 ee 07 	jmp	0xfdc	; 0xfdc <vPortFree>
    250c:	df 91       	pop	r29
    250e:	cf 91       	pop	r28
    2510:	1f 91       	pop	r17
    2512:	0f 91       	pop	r16
    2514:	ff 90       	pop	r15
    2516:	ef 90       	pop	r14
    2518:	08 95       	ret

0000251a <vTaskSuspendAll>:
    251a:	80 91 4c 07 	lds	r24, 0x074C	; 0x80074c <uxSchedulerSuspended>
    251e:	8f 5f       	subi	r24, 0xFF	; 255
    2520:	80 93 4c 07 	sts	0x074C, r24	; 0x80074c <uxSchedulerSuspended>
    2524:	08 95       	ret

00002526 <xTaskResumeAll>:
    2526:	ff 92       	push	r15
    2528:	0f 93       	push	r16
    252a:	1f 93       	push	r17
    252c:	cf 93       	push	r28
    252e:	df 93       	push	r29
    2530:	0f b6       	in	r0, 0x3f	; 63
    2532:	f8 94       	cli
    2534:	0f 92       	push	r0
    2536:	80 91 4c 07 	lds	r24, 0x074C	; 0x80074c <uxSchedulerSuspended>
    253a:	81 50       	subi	r24, 0x01	; 1
    253c:	80 93 4c 07 	sts	0x074C, r24	; 0x80074c <uxSchedulerSuspended>
    2540:	80 91 4c 07 	lds	r24, 0x074C	; 0x80074c <uxSchedulerSuspended>
    2544:	81 11       	cpse	r24, r1
    2546:	77 c0       	rjmp	.+238    	; 0x2636 <xTaskResumeAll+0x110>
    2548:	80 91 5a 07 	lds	r24, 0x075A	; 0x80075a <uxCurrentNumberOfTasks>
    254c:	88 23       	and	r24, r24
    254e:	09 f4       	brne	.+2      	; 0x2552 <xTaskResumeAll+0x2c>
    2550:	72 c0       	rjmp	.+228    	; 0x2636 <xTaskResumeAll+0x110>
    2552:	c0 e0       	ldi	r28, 0x00	; 0
    2554:	d0 e0       	ldi	r29, 0x00	; 0
    2556:	ff 24       	eor	r15, r15
    2558:	f3 94       	inc	r15
    255a:	80 91 65 07 	lds	r24, 0x0765	; 0x800765 <xPendingReadyList>
    255e:	88 23       	and	r24, r24
    2560:	a1 f1       	breq	.+104    	; 0x25ca <xTaskResumeAll+0xa4>
    2562:	e0 91 6a 07 	lds	r30, 0x076A	; 0x80076a <xPendingReadyList+0x5>
    2566:	f0 91 6b 07 	lds	r31, 0x076B	; 0x80076b <xPendingReadyList+0x6>
    256a:	c6 81       	ldd	r28, Z+6	; 0x06
    256c:	d7 81       	ldd	r29, Z+7	; 0x07
    256e:	ce 01       	movw	r24, r28
    2570:	0c 96       	adiw	r24, 0x0c	; 12
    2572:	0e 94 31 07 	call	0xe62	; 0xe62 <uxListRemove>
    2576:	8e 01       	movw	r16, r28
    2578:	0e 5f       	subi	r16, 0xFE	; 254
    257a:	1f 4f       	sbci	r17, 0xFF	; 255
    257c:	c8 01       	movw	r24, r16
    257e:	0e 94 31 07 	call	0xe62	; 0xe62 <uxListRemove>
    2582:	8e 89       	ldd	r24, Y+22	; 0x16
    2584:	90 91 57 07 	lds	r25, 0x0757	; 0x800757 <uxTopReadyPriority>
    2588:	98 17       	cp	r25, r24
    258a:	10 f4       	brcc	.+4      	; 0x2590 <xTaskResumeAll+0x6a>
    258c:	80 93 57 07 	sts	0x0757, r24	; 0x800757 <uxTopReadyPriority>
    2590:	90 e0       	ldi	r25, 0x00	; 0
    2592:	9c 01       	movw	r18, r24
    2594:	22 0f       	add	r18, r18
    2596:	33 1f       	adc	r19, r19
    2598:	22 0f       	add	r18, r18
    259a:	33 1f       	adc	r19, r19
    259c:	22 0f       	add	r18, r18
    259e:	33 1f       	adc	r19, r19
    25a0:	82 0f       	add	r24, r18
    25a2:	93 1f       	adc	r25, r19
    25a4:	b8 01       	movw	r22, r16
    25a6:	8c 57       	subi	r24, 0x7C	; 124
    25a8:	98 4f       	sbci	r25, 0xF8	; 248
    25aa:	0e 94 df 06 	call	0xdbe	; 0xdbe <vListInsertEnd>
    25ae:	e0 91 cc 07 	lds	r30, 0x07CC	; 0x8007cc <pxCurrentTCB>
    25b2:	f0 91 cd 07 	lds	r31, 0x07CD	; 0x8007cd <pxCurrentTCB+0x1>
    25b6:	9e 89       	ldd	r25, Y+22	; 0x16
    25b8:	86 89       	ldd	r24, Z+22	; 0x16
    25ba:	98 17       	cp	r25, r24
    25bc:	70 f2       	brcs	.-100    	; 0x255a <xTaskResumeAll+0x34>
    25be:	f0 92 53 07 	sts	0x0753, r15	; 0x800753 <xYieldPending>
    25c2:	80 91 65 07 	lds	r24, 0x0765	; 0x800765 <xPendingReadyList>
    25c6:	81 11       	cpse	r24, r1
    25c8:	cc cf       	rjmp	.-104    	; 0x2562 <xTaskResumeAll+0x3c>
    25ca:	cd 2b       	or	r28, r29
    25cc:	69 f0       	breq	.+26     	; 0x25e8 <xTaskResumeAll+0xc2>
    25ce:	e0 91 70 07 	lds	r30, 0x0770	; 0x800770 <pxDelayedTaskList>
    25d2:	f0 91 71 07 	lds	r31, 0x0771	; 0x800771 <pxDelayedTaskList+0x1>
    25d6:	80 81       	ld	r24, Z
    25d8:	81 11       	cpse	r24, r1
    25da:	3a c0       	rjmp	.+116    	; 0x2650 <xTaskResumeAll+0x12a>
    25dc:	8f ef       	ldi	r24, 0xFF	; 255
    25de:	9f ef       	ldi	r25, 0xFF	; 255
    25e0:	90 93 50 07 	sts	0x0750, r25	; 0x800750 <xNextTaskUnblockTime+0x1>
    25e4:	80 93 4f 07 	sts	0x074F, r24	; 0x80074f <xNextTaskUnblockTime>
    25e8:	c0 91 54 07 	lds	r28, 0x0754	; 0x800754 <xPendedTicks>
    25ec:	d0 91 55 07 	lds	r29, 0x0755	; 0x800755 <xPendedTicks+0x1>
    25f0:	20 97       	sbiw	r28, 0x00	; 0
    25f2:	e9 f0       	breq	.+58     	; 0x262e <xTaskResumeAll+0x108>
    25f4:	11 e0       	ldi	r17, 0x01	; 1
    25f6:	0b c0       	rjmp	.+22     	; 0x260e <xTaskResumeAll+0xe8>
    25f8:	80 91 54 07 	lds	r24, 0x0754	; 0x800754 <xPendedTicks>
    25fc:	90 91 55 07 	lds	r25, 0x0755	; 0x800755 <xPendedTicks+0x1>
    2600:	01 96       	adiw	r24, 0x01	; 1
    2602:	90 93 55 07 	sts	0x0755, r25	; 0x800755 <xPendedTicks+0x1>
    2606:	80 93 54 07 	sts	0x0754, r24	; 0x800754 <xPendedTicks>
    260a:	21 97       	sbiw	r28, 0x01	; 1
    260c:	61 f0       	breq	.+24     	; 0x2626 <xTaskResumeAll+0x100>
    260e:	80 91 4c 07 	lds	r24, 0x074C	; 0x80074c <uxSchedulerSuspended>
    2612:	81 11       	cpse	r24, r1
    2614:	f1 cf       	rjmp	.-30     	; 0x25f8 <xTaskResumeAll+0xd2>
    2616:	0e 94 ea 0e 	call	0x1dd4	; 0x1dd4 <xTaskIncrementTick.part.4>
    261a:	88 23       	and	r24, r24
    261c:	b1 f3       	breq	.-20     	; 0x260a <xTaskResumeAll+0xe4>
    261e:	10 93 53 07 	sts	0x0753, r17	; 0x800753 <xYieldPending>
    2622:	21 97       	sbiw	r28, 0x01	; 1
    2624:	a1 f7       	brne	.-24     	; 0x260e <xTaskResumeAll+0xe8>
    2626:	10 92 55 07 	sts	0x0755, r1	; 0x800755 <xPendedTicks+0x1>
    262a:	10 92 54 07 	sts	0x0754, r1	; 0x800754 <xPendedTicks>
    262e:	80 91 53 07 	lds	r24, 0x0753	; 0x800753 <xYieldPending>
    2632:	81 11       	cpse	r24, r1
    2634:	09 c0       	rjmp	.+18     	; 0x2648 <xTaskResumeAll+0x122>
    2636:	80 e0       	ldi	r24, 0x00	; 0
    2638:	0f 90       	pop	r0
    263a:	0f be       	out	0x3f, r0	; 63
    263c:	df 91       	pop	r29
    263e:	cf 91       	pop	r28
    2640:	1f 91       	pop	r17
    2642:	0f 91       	pop	r16
    2644:	ff 90       	pop	r15
    2646:	08 95       	ret
    2648:	0e 94 67 08 	call	0x10ce	; 0x10ce <vPortYield>
    264c:	81 e0       	ldi	r24, 0x01	; 1
    264e:	f4 cf       	rjmp	.-24     	; 0x2638 <xTaskResumeAll+0x112>
    2650:	e0 91 70 07 	lds	r30, 0x0770	; 0x800770 <pxDelayedTaskList>
    2654:	f0 91 71 07 	lds	r31, 0x0771	; 0x800771 <pxDelayedTaskList+0x1>
    2658:	05 80       	ldd	r0, Z+5	; 0x05
    265a:	f6 81       	ldd	r31, Z+6	; 0x06
    265c:	e0 2d       	mov	r30, r0
    265e:	80 81       	ld	r24, Z
    2660:	91 81       	ldd	r25, Z+1	; 0x01
    2662:	90 93 50 07 	sts	0x0750, r25	; 0x800750 <xNextTaskUnblockTime+0x1>
    2666:	80 93 4f 07 	sts	0x074F, r24	; 0x80074f <xNextTaskUnblockTime>
    266a:	be cf       	rjmp	.-132    	; 0x25e8 <xTaskResumeAll+0xc2>

0000266c <vTaskDelayUntil>:
    266c:	ef 92       	push	r14
    266e:	ff 92       	push	r15
    2670:	0f 93       	push	r16
    2672:	1f 93       	push	r17
    2674:	cf 93       	push	r28
    2676:	df 93       	push	r29
    2678:	fc 01       	movw	r30, r24
    267a:	90 91 4c 07 	lds	r25, 0x074C	; 0x80074c <uxSchedulerSuspended>
    267e:	9f 5f       	subi	r25, 0xFF	; 255
    2680:	90 93 4c 07 	sts	0x074C, r25	; 0x80074c <uxSchedulerSuspended>
    2684:	40 91 58 07 	lds	r20, 0x0758	; 0x800758 <xTickCount>
    2688:	50 91 59 07 	lds	r21, 0x0759	; 0x800759 <xTickCount+0x1>
    268c:	20 81       	ld	r18, Z
    268e:	31 81       	ldd	r19, Z+1	; 0x01
    2690:	e9 01       	movw	r28, r18
    2692:	c6 0f       	add	r28, r22
    2694:	d7 1f       	adc	r29, r23
    2696:	42 17       	cp	r20, r18
    2698:	53 07       	cpc	r21, r19
    269a:	90 f4       	brcc	.+36     	; 0x26c0 <vTaskDelayUntil+0x54>
    269c:	c2 17       	cp	r28, r18
    269e:	d3 07       	cpc	r29, r19
    26a0:	90 f0       	brcs	.+36     	; 0x26c6 <vTaskDelayUntil+0x5a>
    26a2:	d1 83       	std	Z+1, r29	; 0x01
    26a4:	c0 83       	st	Z, r28
    26a6:	0e 94 93 12 	call	0x2526	; 0x2526 <xTaskResumeAll>
    26aa:	81 11       	cpse	r24, r1
    26ac:	02 c0       	rjmp	.+4      	; 0x26b2 <vTaskDelayUntil+0x46>
    26ae:	0e 94 67 08 	call	0x10ce	; 0x10ce <vPortYield>
    26b2:	df 91       	pop	r29
    26b4:	cf 91       	pop	r28
    26b6:	1f 91       	pop	r17
    26b8:	0f 91       	pop	r16
    26ba:	ff 90       	pop	r15
    26bc:	ef 90       	pop	r14
    26be:	08 95       	ret
    26c0:	c2 17       	cp	r28, r18
    26c2:	d3 07       	cpc	r29, r19
    26c4:	18 f0       	brcs	.+6      	; 0x26cc <vTaskDelayUntil+0x60>
    26c6:	4c 17       	cp	r20, r28
    26c8:	5d 07       	cpc	r21, r29
    26ca:	58 f7       	brcc	.-42     	; 0x26a2 <vTaskDelayUntil+0x36>
    26cc:	d1 83       	std	Z+1, r29	; 0x01
    26ce:	c0 83       	st	Z, r28
    26d0:	e0 90 58 07 	lds	r14, 0x0758	; 0x800758 <xTickCount>
    26d4:	f0 90 59 07 	lds	r15, 0x0759	; 0x800759 <xTickCount+0x1>
    26d8:	87 01       	movw	r16, r14
    26da:	04 1b       	sub	r16, r20
    26dc:	15 0b       	sbc	r17, r21
    26de:	80 91 cc 07 	lds	r24, 0x07CC	; 0x8007cc <pxCurrentTCB>
    26e2:	90 91 cd 07 	lds	r25, 0x07CD	; 0x8007cd <pxCurrentTCB+0x1>
    26e6:	02 96       	adiw	r24, 0x02	; 2
    26e8:	0e 94 31 07 	call	0xe62	; 0xe62 <uxListRemove>
    26ec:	c0 0f       	add	r28, r16
    26ee:	d1 1f       	adc	r29, r17
    26f0:	e0 91 cc 07 	lds	r30, 0x07CC	; 0x8007cc <pxCurrentTCB>
    26f4:	f0 91 cd 07 	lds	r31, 0x07CD	; 0x8007cd <pxCurrentTCB+0x1>
    26f8:	d3 83       	std	Z+3, r29	; 0x03
    26fa:	c2 83       	std	Z+2, r28	; 0x02
    26fc:	ce 15       	cp	r28, r14
    26fe:	df 05       	cpc	r29, r15
    2700:	c8 f0       	brcs	.+50     	; 0x2734 <vTaskDelayUntil+0xc8>
    2702:	60 91 cc 07 	lds	r22, 0x07CC	; 0x8007cc <pxCurrentTCB>
    2706:	70 91 cd 07 	lds	r23, 0x07CD	; 0x8007cd <pxCurrentTCB+0x1>
    270a:	80 91 70 07 	lds	r24, 0x0770	; 0x800770 <pxDelayedTaskList>
    270e:	90 91 71 07 	lds	r25, 0x0771	; 0x800771 <pxDelayedTaskList+0x1>
    2712:	6e 5f       	subi	r22, 0xFE	; 254
    2714:	7f 4f       	sbci	r23, 0xFF	; 255
    2716:	0e 94 00 07 	call	0xe00	; 0xe00 <vListInsert>
    271a:	80 91 4f 07 	lds	r24, 0x074F	; 0x80074f <xNextTaskUnblockTime>
    271e:	90 91 50 07 	lds	r25, 0x0750	; 0x800750 <xNextTaskUnblockTime+0x1>
    2722:	c8 17       	cp	r28, r24
    2724:	d9 07       	cpc	r29, r25
    2726:	08 f0       	brcs	.+2      	; 0x272a <vTaskDelayUntil+0xbe>
    2728:	be cf       	rjmp	.-132    	; 0x26a6 <vTaskDelayUntil+0x3a>
    272a:	d0 93 50 07 	sts	0x0750, r29	; 0x800750 <xNextTaskUnblockTime+0x1>
    272e:	c0 93 4f 07 	sts	0x074F, r28	; 0x80074f <xNextTaskUnblockTime>
    2732:	b9 cf       	rjmp	.-142    	; 0x26a6 <vTaskDelayUntil+0x3a>
    2734:	60 91 cc 07 	lds	r22, 0x07CC	; 0x8007cc <pxCurrentTCB>
    2738:	70 91 cd 07 	lds	r23, 0x07CD	; 0x8007cd <pxCurrentTCB+0x1>
    273c:	80 91 6e 07 	lds	r24, 0x076E	; 0x80076e <pxOverflowDelayedTaskList>
    2740:	90 91 6f 07 	lds	r25, 0x076F	; 0x80076f <pxOverflowDelayedTaskList+0x1>
    2744:	6e 5f       	subi	r22, 0xFE	; 254
    2746:	7f 4f       	sbci	r23, 0xFF	; 255
    2748:	0e 94 00 07 	call	0xe00	; 0xe00 <vListInsert>
    274c:	ac cf       	rjmp	.-168    	; 0x26a6 <vTaskDelayUntil+0x3a>

0000274e <vTaskDelay>:
    274e:	0f 93       	push	r16
    2750:	1f 93       	push	r17
    2752:	cf 93       	push	r28
    2754:	df 93       	push	r29
    2756:	ec 01       	movw	r28, r24
    2758:	89 2b       	or	r24, r25
    275a:	39 f4       	brne	.+14     	; 0x276a <vTaskDelay+0x1c>
    275c:	0e 94 67 08 	call	0x10ce	; 0x10ce <vPortYield>
    2760:	df 91       	pop	r29
    2762:	cf 91       	pop	r28
    2764:	1f 91       	pop	r17
    2766:	0f 91       	pop	r16
    2768:	08 95       	ret
    276a:	80 91 4c 07 	lds	r24, 0x074C	; 0x80074c <uxSchedulerSuspended>
    276e:	8f 5f       	subi	r24, 0xFF	; 255
    2770:	80 93 4c 07 	sts	0x074C, r24	; 0x80074c <uxSchedulerSuspended>
    2774:	00 91 58 07 	lds	r16, 0x0758	; 0x800758 <xTickCount>
    2778:	10 91 59 07 	lds	r17, 0x0759	; 0x800759 <xTickCount+0x1>
    277c:	80 91 cc 07 	lds	r24, 0x07CC	; 0x8007cc <pxCurrentTCB>
    2780:	90 91 cd 07 	lds	r25, 0x07CD	; 0x8007cd <pxCurrentTCB+0x1>
    2784:	02 96       	adiw	r24, 0x02	; 2
    2786:	0e 94 31 07 	call	0xe62	; 0xe62 <uxListRemove>
    278a:	c0 0f       	add	r28, r16
    278c:	d1 1f       	adc	r29, r17
    278e:	e0 91 cc 07 	lds	r30, 0x07CC	; 0x8007cc <pxCurrentTCB>
    2792:	f0 91 cd 07 	lds	r31, 0x07CD	; 0x8007cd <pxCurrentTCB+0x1>
    2796:	d3 83       	std	Z+3, r29	; 0x03
    2798:	c2 83       	std	Z+2, r28	; 0x02
    279a:	60 91 cc 07 	lds	r22, 0x07CC	; 0x8007cc <pxCurrentTCB>
    279e:	70 91 cd 07 	lds	r23, 0x07CD	; 0x8007cd <pxCurrentTCB+0x1>
    27a2:	c0 17       	cp	r28, r16
    27a4:	d1 07       	cpc	r29, r17
    27a6:	e0 f0       	brcs	.+56     	; 0x27e0 <vTaskDelay+0x92>
    27a8:	80 91 70 07 	lds	r24, 0x0770	; 0x800770 <pxDelayedTaskList>
    27ac:	90 91 71 07 	lds	r25, 0x0771	; 0x800771 <pxDelayedTaskList+0x1>
    27b0:	6e 5f       	subi	r22, 0xFE	; 254
    27b2:	7f 4f       	sbci	r23, 0xFF	; 255
    27b4:	0e 94 00 07 	call	0xe00	; 0xe00 <vListInsert>
    27b8:	80 91 4f 07 	lds	r24, 0x074F	; 0x80074f <xNextTaskUnblockTime>
    27bc:	90 91 50 07 	lds	r25, 0x0750	; 0x800750 <xNextTaskUnblockTime+0x1>
    27c0:	c8 17       	cp	r28, r24
    27c2:	d9 07       	cpc	r29, r25
    27c4:	20 f4       	brcc	.+8      	; 0x27ce <vTaskDelay+0x80>
    27c6:	d0 93 50 07 	sts	0x0750, r29	; 0x800750 <xNextTaskUnblockTime+0x1>
    27ca:	c0 93 4f 07 	sts	0x074F, r28	; 0x80074f <xNextTaskUnblockTime>
    27ce:	0e 94 93 12 	call	0x2526	; 0x2526 <xTaskResumeAll>
    27d2:	88 23       	and	r24, r24
    27d4:	19 f2       	breq	.-122    	; 0x275c <vTaskDelay+0xe>
    27d6:	df 91       	pop	r29
    27d8:	cf 91       	pop	r28
    27da:	1f 91       	pop	r17
    27dc:	0f 91       	pop	r16
    27de:	08 95       	ret
    27e0:	80 91 6e 07 	lds	r24, 0x076E	; 0x80076e <pxOverflowDelayedTaskList>
    27e4:	90 91 6f 07 	lds	r25, 0x076F	; 0x80076f <pxOverflowDelayedTaskList+0x1>
    27e8:	6e 5f       	subi	r22, 0xFE	; 254
    27ea:	7f 4f       	sbci	r23, 0xFF	; 255
    27ec:	0e 94 00 07 	call	0xe00	; 0xe00 <vListInsert>
    27f0:	ee cf       	rjmp	.-36     	; 0x27ce <vTaskDelay+0x80>

000027f2 <xTaskGetTickCount>:
    27f2:	0f b6       	in	r0, 0x3f	; 63
    27f4:	f8 94       	cli
    27f6:	0f 92       	push	r0
    27f8:	80 91 58 07 	lds	r24, 0x0758	; 0x800758 <xTickCount>
    27fc:	90 91 59 07 	lds	r25, 0x0759	; 0x800759 <xTickCount+0x1>
    2800:	0f 90       	pop	r0
    2802:	0f be       	out	0x3f, r0	; 63
    2804:	08 95       	ret

00002806 <xTaskIncrementTick>:
    2806:	80 91 4c 07 	lds	r24, 0x074C	; 0x80074c <uxSchedulerSuspended>
    280a:	81 11       	cpse	r24, r1
    280c:	02 c0       	rjmp	.+4      	; 0x2812 <xTaskIncrementTick+0xc>
    280e:	0c 94 ea 0e 	jmp	0x1dd4	; 0x1dd4 <xTaskIncrementTick.part.4>
    2812:	80 91 54 07 	lds	r24, 0x0754	; 0x800754 <xPendedTicks>
    2816:	90 91 55 07 	lds	r25, 0x0755	; 0x800755 <xPendedTicks+0x1>
    281a:	01 96       	adiw	r24, 0x01	; 1
    281c:	90 93 55 07 	sts	0x0755, r25	; 0x800755 <xPendedTicks+0x1>
    2820:	80 93 54 07 	sts	0x0754, r24	; 0x800754 <xPendedTicks>
    2824:	80 e0       	ldi	r24, 0x00	; 0
    2826:	08 95       	ret

00002828 <vTaskSwitchContext>:
    2828:	80 91 4c 07 	lds	r24, 0x074C	; 0x80074c <uxSchedulerSuspended>
    282c:	81 11       	cpse	r24, r1
    282e:	35 c0       	rjmp	.+106    	; 0x289a <vTaskSwitchContext+0x72>
    2830:	10 92 53 07 	sts	0x0753, r1	; 0x800753 <xYieldPending>
    2834:	20 91 57 07 	lds	r18, 0x0757	; 0x800757 <uxTopReadyPriority>
    2838:	01 c0       	rjmp	.+2      	; 0x283c <vTaskSwitchContext+0x14>
    283a:	21 50       	subi	r18, 0x01	; 1
    283c:	82 2f       	mov	r24, r18
    283e:	90 e0       	ldi	r25, 0x00	; 0
    2840:	ac 01       	movw	r20, r24
    2842:	44 0f       	add	r20, r20
    2844:	55 1f       	adc	r21, r21
    2846:	44 0f       	add	r20, r20
    2848:	55 1f       	adc	r21, r21
    284a:	44 0f       	add	r20, r20
    284c:	55 1f       	adc	r21, r21
    284e:	fa 01       	movw	r30, r20
    2850:	e8 0f       	add	r30, r24
    2852:	f9 1f       	adc	r31, r25
    2854:	ec 57       	subi	r30, 0x7C	; 124
    2856:	f8 4f       	sbci	r31, 0xF8	; 248
    2858:	30 81       	ld	r19, Z
    285a:	33 23       	and	r19, r19
    285c:	71 f3       	breq	.-36     	; 0x283a <vTaskSwitchContext+0x12>
    285e:	84 0f       	add	r24, r20
    2860:	95 1f       	adc	r25, r21
    2862:	dc 01       	movw	r26, r24
    2864:	ac 57       	subi	r26, 0x7C	; 124
    2866:	b8 4f       	sbci	r27, 0xF8	; 248
    2868:	11 96       	adiw	r26, 0x01	; 1
    286a:	ed 91       	ld	r30, X+
    286c:	fc 91       	ld	r31, X
    286e:	12 97       	sbiw	r26, 0x02	; 2
    2870:	02 80       	ldd	r0, Z+2	; 0x02
    2872:	f3 81       	ldd	r31, Z+3	; 0x03
    2874:	e0 2d       	mov	r30, r0
    2876:	12 96       	adiw	r26, 0x02	; 2
    2878:	fc 93       	st	X, r31
    287a:	ee 93       	st	-X, r30
    287c:	11 97       	sbiw	r26, 0x01	; 1
    287e:	89 57       	subi	r24, 0x79	; 121
    2880:	98 4f       	sbci	r25, 0xF8	; 248
    2882:	e8 17       	cp	r30, r24
    2884:	f9 07       	cpc	r31, r25
    2886:	69 f0       	breq	.+26     	; 0x28a2 <vTaskSwitchContext+0x7a>
    2888:	86 81       	ldd	r24, Z+6	; 0x06
    288a:	97 81       	ldd	r25, Z+7	; 0x07
    288c:	90 93 cd 07 	sts	0x07CD, r25	; 0x8007cd <pxCurrentTCB+0x1>
    2890:	80 93 cc 07 	sts	0x07CC, r24	; 0x8007cc <pxCurrentTCB>
    2894:	20 93 57 07 	sts	0x0757, r18	; 0x800757 <uxTopReadyPriority>
    2898:	08 95       	ret
    289a:	81 e0       	ldi	r24, 0x01	; 1
    289c:	80 93 53 07 	sts	0x0753, r24	; 0x800753 <xYieldPending>
    28a0:	08 95       	ret
    28a2:	02 80       	ldd	r0, Z+2	; 0x02
    28a4:	f3 81       	ldd	r31, Z+3	; 0x03
    28a6:	e0 2d       	mov	r30, r0
    28a8:	12 96       	adiw	r26, 0x02	; 2
    28aa:	fc 93       	st	X, r31
    28ac:	ee 93       	st	-X, r30
    28ae:	11 97       	sbiw	r26, 0x01	; 1
    28b0:	eb cf       	rjmp	.-42     	; 0x2888 <vTaskSwitchContext+0x60>

000028b2 <vTaskPlaceOnEventList>:
    28b2:	0f 93       	push	r16
    28b4:	1f 93       	push	r17
    28b6:	cf 93       	push	r28
    28b8:	df 93       	push	r29
    28ba:	eb 01       	movw	r28, r22
    28bc:	60 91 cc 07 	lds	r22, 0x07CC	; 0x8007cc <pxCurrentTCB>
    28c0:	70 91 cd 07 	lds	r23, 0x07CD	; 0x8007cd <pxCurrentTCB+0x1>
    28c4:	64 5f       	subi	r22, 0xF4	; 244
    28c6:	7f 4f       	sbci	r23, 0xFF	; 255
    28c8:	0e 94 00 07 	call	0xe00	; 0xe00 <vListInsert>
    28cc:	00 91 58 07 	lds	r16, 0x0758	; 0x800758 <xTickCount>
    28d0:	10 91 59 07 	lds	r17, 0x0759	; 0x800759 <xTickCount+0x1>
    28d4:	80 91 cc 07 	lds	r24, 0x07CC	; 0x8007cc <pxCurrentTCB>
    28d8:	90 91 cd 07 	lds	r25, 0x07CD	; 0x8007cd <pxCurrentTCB+0x1>
    28dc:	02 96       	adiw	r24, 0x02	; 2
    28de:	0e 94 31 07 	call	0xe62	; 0xe62 <uxListRemove>
    28e2:	c0 0f       	add	r28, r16
    28e4:	d1 1f       	adc	r29, r17
    28e6:	e0 91 cc 07 	lds	r30, 0x07CC	; 0x8007cc <pxCurrentTCB>
    28ea:	f0 91 cd 07 	lds	r31, 0x07CD	; 0x8007cd <pxCurrentTCB+0x1>
    28ee:	d3 83       	std	Z+3, r29	; 0x03
    28f0:	c2 83       	std	Z+2, r28	; 0x02
    28f2:	60 91 cc 07 	lds	r22, 0x07CC	; 0x8007cc <pxCurrentTCB>
    28f6:	70 91 cd 07 	lds	r23, 0x07CD	; 0x8007cd <pxCurrentTCB+0x1>
    28fa:	c0 17       	cp	r28, r16
    28fc:	d1 07       	cpc	r29, r17
    28fe:	c0 f0       	brcs	.+48     	; 0x2930 <vTaskPlaceOnEventList+0x7e>
    2900:	80 91 70 07 	lds	r24, 0x0770	; 0x800770 <pxDelayedTaskList>
    2904:	90 91 71 07 	lds	r25, 0x0771	; 0x800771 <pxDelayedTaskList+0x1>
    2908:	6e 5f       	subi	r22, 0xFE	; 254
    290a:	7f 4f       	sbci	r23, 0xFF	; 255
    290c:	0e 94 00 07 	call	0xe00	; 0xe00 <vListInsert>
    2910:	80 91 4f 07 	lds	r24, 0x074F	; 0x80074f <xNextTaskUnblockTime>
    2914:	90 91 50 07 	lds	r25, 0x0750	; 0x800750 <xNextTaskUnblockTime+0x1>
    2918:	c8 17       	cp	r28, r24
    291a:	d9 07       	cpc	r29, r25
    291c:	20 f4       	brcc	.+8      	; 0x2926 <vTaskPlaceOnEventList+0x74>
    291e:	d0 93 50 07 	sts	0x0750, r29	; 0x800750 <xNextTaskUnblockTime+0x1>
    2922:	c0 93 4f 07 	sts	0x074F, r28	; 0x80074f <xNextTaskUnblockTime>
    2926:	df 91       	pop	r29
    2928:	cf 91       	pop	r28
    292a:	1f 91       	pop	r17
    292c:	0f 91       	pop	r16
    292e:	08 95       	ret
    2930:	80 91 6e 07 	lds	r24, 0x076E	; 0x80076e <pxOverflowDelayedTaskList>
    2934:	90 91 6f 07 	lds	r25, 0x076F	; 0x80076f <pxOverflowDelayedTaskList+0x1>
    2938:	6e 5f       	subi	r22, 0xFE	; 254
    293a:	7f 4f       	sbci	r23, 0xFF	; 255
    293c:	df 91       	pop	r29
    293e:	cf 91       	pop	r28
    2940:	1f 91       	pop	r17
    2942:	0f 91       	pop	r16
    2944:	0c 94 00 07 	jmp	0xe00	; 0xe00 <vListInsert>

00002948 <xTaskRemoveFromEventList>:
    2948:	0f 93       	push	r16
    294a:	1f 93       	push	r17
    294c:	cf 93       	push	r28
    294e:	df 93       	push	r29
    2950:	dc 01       	movw	r26, r24
    2952:	15 96       	adiw	r26, 0x05	; 5
    2954:	ed 91       	ld	r30, X+
    2956:	fc 91       	ld	r31, X
    2958:	16 97       	sbiw	r26, 0x06	; 6
    295a:	c6 81       	ldd	r28, Z+6	; 0x06
    295c:	d7 81       	ldd	r29, Z+7	; 0x07
    295e:	8e 01       	movw	r16, r28
    2960:	04 5f       	subi	r16, 0xF4	; 244
    2962:	1f 4f       	sbci	r17, 0xFF	; 255
    2964:	c8 01       	movw	r24, r16
    2966:	0e 94 31 07 	call	0xe62	; 0xe62 <uxListRemove>
    296a:	80 91 4c 07 	lds	r24, 0x074C	; 0x80074c <uxSchedulerSuspended>
    296e:	81 11       	cpse	r24, r1
    2970:	29 c0       	rjmp	.+82     	; 0x29c4 <xTaskRemoveFromEventList+0x7c>
    2972:	0a 50       	subi	r16, 0x0A	; 10
    2974:	11 09       	sbc	r17, r1
    2976:	c8 01       	movw	r24, r16
    2978:	0e 94 31 07 	call	0xe62	; 0xe62 <uxListRemove>
    297c:	8e 89       	ldd	r24, Y+22	; 0x16
    297e:	90 91 57 07 	lds	r25, 0x0757	; 0x800757 <uxTopReadyPriority>
    2982:	98 17       	cp	r25, r24
    2984:	28 f1       	brcs	.+74     	; 0x29d0 <xTaskRemoveFromEventList+0x88>
    2986:	90 e0       	ldi	r25, 0x00	; 0
    2988:	9c 01       	movw	r18, r24
    298a:	22 0f       	add	r18, r18
    298c:	33 1f       	adc	r19, r19
    298e:	22 0f       	add	r18, r18
    2990:	33 1f       	adc	r19, r19
    2992:	22 0f       	add	r18, r18
    2994:	33 1f       	adc	r19, r19
    2996:	82 0f       	add	r24, r18
    2998:	93 1f       	adc	r25, r19
    299a:	b8 01       	movw	r22, r16
    299c:	8c 57       	subi	r24, 0x7C	; 124
    299e:	98 4f       	sbci	r25, 0xF8	; 248
    29a0:	0e 94 df 06 	call	0xdbe	; 0xdbe <vListInsertEnd>
    29a4:	e0 91 cc 07 	lds	r30, 0x07CC	; 0x8007cc <pxCurrentTCB>
    29a8:	f0 91 cd 07 	lds	r31, 0x07CD	; 0x8007cd <pxCurrentTCB+0x1>
    29ac:	9e 89       	ldd	r25, Y+22	; 0x16
    29ae:	86 89       	ldd	r24, Z+22	; 0x16
    29b0:	89 17       	cp	r24, r25
    29b2:	88 f4       	brcc	.+34     	; 0x29d6 <xTaskRemoveFromEventList+0x8e>
    29b4:	81 e0       	ldi	r24, 0x01	; 1
    29b6:	80 93 53 07 	sts	0x0753, r24	; 0x800753 <xYieldPending>
    29ba:	df 91       	pop	r29
    29bc:	cf 91       	pop	r28
    29be:	1f 91       	pop	r17
    29c0:	0f 91       	pop	r16
    29c2:	08 95       	ret
    29c4:	b8 01       	movw	r22, r16
    29c6:	85 e6       	ldi	r24, 0x65	; 101
    29c8:	97 e0       	ldi	r25, 0x07	; 7
    29ca:	0e 94 df 06 	call	0xdbe	; 0xdbe <vListInsertEnd>
    29ce:	ea cf       	rjmp	.-44     	; 0x29a4 <xTaskRemoveFromEventList+0x5c>
    29d0:	80 93 57 07 	sts	0x0757, r24	; 0x800757 <uxTopReadyPriority>
    29d4:	d8 cf       	rjmp	.-80     	; 0x2986 <xTaskRemoveFromEventList+0x3e>
    29d6:	80 e0       	ldi	r24, 0x00	; 0
    29d8:	df 91       	pop	r29
    29da:	cf 91       	pop	r28
    29dc:	1f 91       	pop	r17
    29de:	0f 91       	pop	r16
    29e0:	08 95       	ret

000029e2 <vTaskInternalSetTimeOutState>:
    29e2:	20 91 52 07 	lds	r18, 0x0752	; 0x800752 <xNumOfOverflows>
    29e6:	fc 01       	movw	r30, r24
    29e8:	20 83       	st	Z, r18
    29ea:	20 91 58 07 	lds	r18, 0x0758	; 0x800758 <xTickCount>
    29ee:	30 91 59 07 	lds	r19, 0x0759	; 0x800759 <xTickCount+0x1>
    29f2:	32 83       	std	Z+2, r19	; 0x02
    29f4:	21 83       	std	Z+1, r18	; 0x01
    29f6:	08 95       	ret

000029f8 <xTaskCheckForTimeOut>:
    29f8:	fc 01       	movw	r30, r24
    29fa:	0f b6       	in	r0, 0x3f	; 63
    29fc:	f8 94       	cli
    29fe:	0f 92       	push	r0
    2a00:	20 91 58 07 	lds	r18, 0x0758	; 0x800758 <xTickCount>
    2a04:	30 91 59 07 	lds	r19, 0x0759	; 0x800759 <xTickCount+0x1>
    2a08:	81 81       	ldd	r24, Z+1	; 0x01
    2a0a:	92 81       	ldd	r25, Z+2	; 0x02
    2a0c:	40 91 52 07 	lds	r20, 0x0752	; 0x800752 <xNumOfOverflows>
    2a10:	50 81       	ld	r21, Z
    2a12:	54 17       	cp	r21, r20
    2a14:	19 f0       	breq	.+6      	; 0x2a1c <xTaskCheckForTimeOut+0x24>
    2a16:	28 17       	cp	r18, r24
    2a18:	39 07       	cpc	r19, r25
    2a1a:	48 f4       	brcc	.+18     	; 0x2a2e <xTaskCheckForTimeOut+0x36>
    2a1c:	28 1b       	sub	r18, r24
    2a1e:	39 0b       	sbc	r19, r25
    2a20:	db 01       	movw	r26, r22
    2a22:	8d 91       	ld	r24, X+
    2a24:	9c 91       	ld	r25, X
    2a26:	11 97       	sbiw	r26, 0x01	; 1
    2a28:	28 17       	cp	r18, r24
    2a2a:	39 07       	cpc	r19, r25
    2a2c:	38 f0       	brcs	.+14     	; 0x2a3c <xTaskCheckForTimeOut+0x44>
    2a2e:	db 01       	movw	r26, r22
    2a30:	1d 92       	st	X+, r1
    2a32:	1c 92       	st	X, r1
    2a34:	81 e0       	ldi	r24, 0x01	; 1
    2a36:	0f 90       	pop	r0
    2a38:	0f be       	out	0x3f, r0	; 63
    2a3a:	08 95       	ret
    2a3c:	82 1b       	sub	r24, r18
    2a3e:	93 0b       	sbc	r25, r19
    2a40:	8d 93       	st	X+, r24
    2a42:	9c 93       	st	X, r25
    2a44:	80 91 52 07 	lds	r24, 0x0752	; 0x800752 <xNumOfOverflows>
    2a48:	80 83       	st	Z, r24
    2a4a:	80 91 58 07 	lds	r24, 0x0758	; 0x800758 <xTickCount>
    2a4e:	90 91 59 07 	lds	r25, 0x0759	; 0x800759 <xTickCount+0x1>
    2a52:	92 83       	std	Z+2, r25	; 0x02
    2a54:	81 83       	std	Z+1, r24	; 0x01
    2a56:	80 e0       	ldi	r24, 0x00	; 0
    2a58:	0f 90       	pop	r0
    2a5a:	0f be       	out	0x3f, r0	; 63
    2a5c:	08 95       	ret

00002a5e <vTaskMissedYield>:
    2a5e:	81 e0       	ldi	r24, 0x01	; 1
    2a60:	80 93 53 07 	sts	0x0753, r24	; 0x800753 <xYieldPending>
    2a64:	08 95       	ret

00002a66 <task_serial_test>:
    2a66:	cf 93       	push	r28
    2a68:	df 93       	push	r29
    2a6a:	cd b7       	in	r28, 0x3d	; 61
    2a6c:	de b7       	in	r29, 0x3e	; 62
    2a6e:	ea 97       	sbiw	r28, 0x3a	; 58
    2a70:	0f b6       	in	r0, 0x3f	; 63
    2a72:	f8 94       	cli
    2a74:	de bf       	out	0x3e, r29	; 62
    2a76:	0f be       	out	0x3f, r0	; 63
    2a78:	cd bf       	out	0x3d, r28	; 61
    2a7a:	7c 01       	movw	r14, r24
    2a7c:	89 2b       	or	r24, r25
    2a7e:	09 f4       	brne	.+2      	; 0x2a82 <task_serial_test+0x1c>
    2a80:	70 c0       	rjmp	.+224    	; 0x2b62 <task_serial_test+0xfc>
    2a82:	40 e8       	ldi	r20, 0x80	; 128
    2a84:	60 e0       	ldi	r22, 0x00	; 0
    2a86:	72 ec       	ldi	r23, 0xC2	; 194
    2a88:	81 e0       	ldi	r24, 0x01	; 1
    2a8a:	90 e0       	ldi	r25, 0x00	; 0
    2a8c:	0e 94 61 05 	call	0xac2	; 0xac2 <xSerialPortInit>
    2a90:	3c 01       	movw	r6, r24
    2a92:	8e 01       	movw	r16, r28
    2a94:	0f 5f       	subi	r16, 0xFF	; 255
    2a96:	1f 4f       	sbci	r17, 0xFF	; 255
    2a98:	89 e3       	ldi	r24, 0x39	; 57
    2a9a:	88 2e       	mov	r8, r24
    2a9c:	81 e0       	ldi	r24, 0x01	; 1
    2a9e:	98 2e       	mov	r9, r24
    2aa0:	92 e3       	ldi	r25, 0x32	; 50
    2aa2:	b9 2e       	mov	r11, r25
    2aa4:	2f e1       	ldi	r18, 0x1F	; 31
    2aa6:	c2 2e       	mov	r12, r18
    2aa8:	21 e0       	ldi	r18, 0x01	; 1
    2aaa:	d2 2e       	mov	r13, r18
    2aac:	39 c0       	rjmp	.+114    	; 0x2b20 <task_serial_test+0xba>
    2aae:	45 e0       	ldi	r20, 0x05	; 5
    2ab0:	50 e0       	ldi	r21, 0x00	; 0
    2ab2:	be 01       	movw	r22, r28
    2ab4:	6d 5c       	subi	r22, 0xCD	; 205
    2ab6:	7f 4f       	sbci	r23, 0xFF	; 255
    2ab8:	f7 01       	movw	r30, r14
    2aba:	80 81       	ld	r24, Z
    2abc:	91 81       	ldd	r25, Z+1	; 0x01
    2abe:	0e 94 9c 0b 	call	0x1738	; 0x1738 <xQueueReceive>
    2ac2:	0e 94 19 08 	call	0x1032	; 0x1032 <xPortGetFreeHeapSize>
    2ac6:	9f 93       	push	r25
    2ac8:	8f 93       	push	r24
    2aca:	8e a9       	ldd	r24, Y+54	; 0x36
    2acc:	8f 93       	push	r24
    2ace:	8d a9       	ldd	r24, Y+53	; 0x35
    2ad0:	8f 93       	push	r24
    2ad2:	8c a9       	ldd	r24, Y+52	; 0x34
    2ad4:	8f 93       	push	r24
    2ad6:	8b a9       	ldd	r24, Y+51	; 0x33
    2ad8:	8f 93       	push	r24
    2ada:	88 ad       	ldd	r24, Y+56	; 0x38
    2adc:	8f 93       	push	r24
    2ade:	8f a9       	ldd	r24, Y+55	; 0x37
    2ae0:	8f 93       	push	r24
    2ae2:	df 92       	push	r13
    2ae4:	cf 92       	push	r12
    2ae6:	1f 92       	push	r1
    2ae8:	bf 92       	push	r11
    2aea:	1f 93       	push	r17
    2aec:	0f 93       	push	r16
    2aee:	0e 94 88 24 	call	0x4910	; 0x4910 <snprintf>
    2af2:	22 e0       	ldi	r18, 0x02	; 2
    2af4:	30 e0       	ldi	r19, 0x00	; 0
    2af6:	42 e3       	ldi	r20, 0x32	; 50
    2af8:	50 e0       	ldi	r21, 0x00	; 0
    2afa:	b8 01       	movw	r22, r16
    2afc:	c3 01       	movw	r24, r6
    2afe:	0e 94 b7 05 	call	0xb6e	; 0xb6e <xSerialPutString>
    2b02:	0f b6       	in	r0, 0x3f	; 63
    2b04:	f8 94       	cli
    2b06:	de bf       	out	0x3e, r29	; 62
    2b08:	0f be       	out	0x3f, r0	; 63
    2b0a:	cd bf       	out	0x3d, r28	; 61
    2b0c:	0e 94 f9 13 	call	0x27f2	; 0x27f2 <xTaskGetTickCount>
    2b10:	9a af       	std	Y+58, r25	; 0x3a
    2b12:	89 af       	std	Y+57, r24	; 0x39
    2b14:	64 e6       	ldi	r22, 0x64	; 100
    2b16:	70 e0       	ldi	r23, 0x00	; 0
    2b18:	ce 01       	movw	r24, r28
    2b1a:	c9 96       	adiw	r24, 0x39	; 57
    2b1c:	0e 94 36 13 	call	0x266c	; 0x266c <vTaskDelayUntil>
    2b20:	f7 01       	movw	r30, r14
    2b22:	80 81       	ld	r24, Z
    2b24:	91 81       	ldd	r25, Z+1	; 0x01
    2b26:	0e 94 b6 0e 	call	0x1d6c	; 0x1d6c <uxQueueMessagesWaiting>
    2b2a:	81 11       	cpse	r24, r1
    2b2c:	c0 cf       	rjmp	.-128    	; 0x2aae <task_serial_test+0x48>
    2b2e:	0e 94 19 08 	call	0x1032	; 0x1032 <xPortGetFreeHeapSize>
    2b32:	9f 93       	push	r25
    2b34:	8f 93       	push	r24
    2b36:	9f 92       	push	r9
    2b38:	8f 92       	push	r8
    2b3a:	1f 92       	push	r1
    2b3c:	bf 92       	push	r11
    2b3e:	1f 93       	push	r17
    2b40:	0f 93       	push	r16
    2b42:	0e 94 88 24 	call	0x4910	; 0x4910 <snprintf>
    2b46:	22 e0       	ldi	r18, 0x02	; 2
    2b48:	30 e0       	ldi	r19, 0x00	; 0
    2b4a:	42 e3       	ldi	r20, 0x32	; 50
    2b4c:	50 e0       	ldi	r21, 0x00	; 0
    2b4e:	b8 01       	movw	r22, r16
    2b50:	c3 01       	movw	r24, r6
    2b52:	0e 94 b7 05 	call	0xb6e	; 0xb6e <xSerialPutString>
    2b56:	0f b6       	in	r0, 0x3f	; 63
    2b58:	f8 94       	cli
    2b5a:	de bf       	out	0x3e, r29	; 62
    2b5c:	0f be       	out	0x3f, r0	; 63
    2b5e:	cd bf       	out	0x3d, r28	; 61
    2b60:	d5 cf       	rjmp	.-86     	; 0x2b0c <task_serial_test+0xa6>
    2b62:	80 e0       	ldi	r24, 0x00	; 0
    2b64:	90 e0       	ldi	r25, 0x00	; 0
    2b66:	0e 94 2e 11 	call	0x225c	; 0x225c <vTaskDelete>
    2b6a:	8b cf       	rjmp	.-234    	; 0x2a82 <task_serial_test+0x1c>

00002b6c <playSound>:
    2b6c:	6f 92       	push	r6
    2b6e:	7f 92       	push	r7
    2b70:	8f 92       	push	r8
    2b72:	9f 92       	push	r9
    2b74:	af 92       	push	r10
    2b76:	bf 92       	push	r11
    2b78:	cf 92       	push	r12
    2b7a:	df 92       	push	r13
    2b7c:	ef 92       	push	r14
    2b7e:	ff 92       	push	r15
    2b80:	0f 93       	push	r16
    2b82:	1f 93       	push	r17
    2b84:	cf 93       	push	r28
    2b86:	df 93       	push	r29
    2b88:	00 d0       	rcall	.+0      	; 0x2b8a <playSound+0x1e>
    2b8a:	cd b7       	in	r28, 0x3d	; 61
    2b8c:	de b7       	in	r29, 0x3e	; 62
    2b8e:	82 30       	cpi	r24, 0x02	; 2
    2b90:	09 f4       	brne	.+2      	; 0x2b94 <playSound+0x28>
    2b92:	d1 c0       	rjmp	.+418    	; 0x2d36 <playSound+0x1ca>
    2b94:	83 30       	cpi	r24, 0x03	; 3
    2b96:	09 f4       	brne	.+2      	; 0x2b9a <playSound+0x2e>
    2b98:	8f c0       	rjmp	.+286    	; 0x2cb8 <playSound+0x14c>
    2b9a:	81 30       	cpi	r24, 0x01	; 1
    2b9c:	a9 f0       	breq	.+42     	; 0x2bc8 <playSound+0x5c>
    2b9e:	8a e0       	ldi	r24, 0x0A	; 10
    2ba0:	90 e0       	ldi	r25, 0x00	; 0
    2ba2:	0e 94 a7 13 	call	0x274e	; 0x274e <vTaskDelay>
    2ba6:	0f 90       	pop	r0
    2ba8:	0f 90       	pop	r0
    2baa:	df 91       	pop	r29
    2bac:	cf 91       	pop	r28
    2bae:	1f 91       	pop	r17
    2bb0:	0f 91       	pop	r16
    2bb2:	ff 90       	pop	r15
    2bb4:	ef 90       	pop	r14
    2bb6:	df 90       	pop	r13
    2bb8:	cf 90       	pop	r12
    2bba:	bf 90       	pop	r11
    2bbc:	af 90       	pop	r10
    2bbe:	9f 90       	pop	r9
    2bc0:	8f 90       	pop	r8
    2bc2:	7f 90       	pop	r7
    2bc4:	6f 90       	pop	r6
    2bc6:	08 95       	ret
    2bc8:	63 e0       	ldi	r22, 0x03	; 3
    2bca:	86 2e       	mov	r8, r22
    2bcc:	91 2c       	mov	r9, r1
    2bce:	8e 01       	movw	r16, r28
    2bd0:	0f 5f       	subi	r16, 0xFF	; 255
    2bd2:	1f 4f       	sbci	r17, 0xFF	; 255
    2bd4:	78 e1       	ldi	r23, 0x18	; 24
    2bd6:	67 2e       	mov	r6, r23
    2bd8:	ec e0       	ldi	r30, 0x0C	; 12
    2bda:	7e 2e       	mov	r7, r30
    2bdc:	f3 e2       	ldi	r31, 0x23	; 35
    2bde:	cf 2e       	mov	r12, r31
    2be0:	ae e0       	ldi	r26, 0x0E	; 14
    2be2:	da 2e       	mov	r13, r26
    2be4:	b0 e2       	ldi	r27, 0x20	; 32
    2be6:	ab 2e       	mov	r10, r27
    2be8:	80 e1       	ldi	r24, 0x10	; 16
    2bea:	b8 2e       	mov	r11, r24
    2bec:	53 e0       	ldi	r21, 0x03	; 3
    2bee:	e5 2e       	mov	r14, r21
    2bf0:	f1 2c       	mov	r15, r1
    2bf2:	0e 94 f9 13 	call	0x27f2	; 0x27f2 <xTaskGetTickCount>
    2bf6:	9a 83       	std	Y+2, r25	; 0x02
    2bf8:	89 83       	std	Y+1, r24	; 0x01
    2bfa:	0f b6       	in	r0, 0x3f	; 63
    2bfc:	f8 94       	cli
    2bfe:	0f 92       	push	r0
    2c00:	53 9a       	sbi	0x0a, 3	; 10
    2c02:	60 92 b3 00 	sts	0x00B3, r6	; 0x8000b3 <__DATA_REGION_ORIGIN__+0x53>
    2c06:	70 92 b4 00 	sts	0x00B4, r7	; 0x8000b4 <__DATA_REGION_ORIGIN__+0x54>
    2c0a:	10 92 b2 00 	sts	0x00B2, r1	; 0x8000b2 <__DATA_REGION_ORIGIN__+0x52>
    2c0e:	10 92 70 00 	sts	0x0070, r1	; 0x800070 <__DATA_REGION_ORIGIN__+0x10>
    2c12:	c0 92 b0 00 	sts	0x00B0, r12	; 0x8000b0 <__DATA_REGION_ORIGIN__+0x50>
    2c16:	d0 92 b1 00 	sts	0x00B1, r13	; 0x8000b1 <__DATA_REGION_ORIGIN__+0x51>
    2c1a:	0f 90       	pop	r0
    2c1c:	0f be       	out	0x3f, r0	; 63
    2c1e:	6e e1       	ldi	r22, 0x1E	; 30
    2c20:	70 e0       	ldi	r23, 0x00	; 0
    2c22:	c8 01       	movw	r24, r16
    2c24:	0e 94 36 13 	call	0x266c	; 0x266c <vTaskDelayUntil>
    2c28:	0e 94 f9 13 	call	0x27f2	; 0x27f2 <xTaskGetTickCount>
    2c2c:	9a 83       	std	Y+2, r25	; 0x02
    2c2e:	89 83       	std	Y+1, r24	; 0x01
    2c30:	0f b6       	in	r0, 0x3f	; 63
    2c32:	f8 94       	cli
    2c34:	0f 92       	push	r0
    2c36:	53 9a       	sbi	0x0a, 3	; 10
    2c38:	a0 92 b3 00 	sts	0x00B3, r10	; 0x8000b3 <__DATA_REGION_ORIGIN__+0x53>
    2c3c:	b0 92 b4 00 	sts	0x00B4, r11	; 0x8000b4 <__DATA_REGION_ORIGIN__+0x54>
    2c40:	10 92 b2 00 	sts	0x00B2, r1	; 0x8000b2 <__DATA_REGION_ORIGIN__+0x52>
    2c44:	10 92 70 00 	sts	0x0070, r1	; 0x800070 <__DATA_REGION_ORIGIN__+0x10>
    2c48:	c0 92 b0 00 	sts	0x00B0, r12	; 0x8000b0 <__DATA_REGION_ORIGIN__+0x50>
    2c4c:	d0 92 b1 00 	sts	0x00B1, r13	; 0x8000b1 <__DATA_REGION_ORIGIN__+0x51>
    2c50:	0f 90       	pop	r0
    2c52:	0f be       	out	0x3f, r0	; 63
    2c54:	64 e1       	ldi	r22, 0x14	; 20
    2c56:	70 e0       	ldi	r23, 0x00	; 0
    2c58:	c8 01       	movw	r24, r16
    2c5a:	0e 94 36 13 	call	0x266c	; 0x266c <vTaskDelayUntil>
    2c5e:	0e 94 f9 13 	call	0x27f2	; 0x27f2 <xTaskGetTickCount>
    2c62:	9a 83       	std	Y+2, r25	; 0x02
    2c64:	89 83       	std	Y+1, r24	; 0x01
    2c66:	0f b6       	in	r0, 0x3f	; 63
    2c68:	f8 94       	cli
    2c6a:	0f 92       	push	r0
    2c6c:	10 92 b1 00 	sts	0x00B1, r1	; 0x8000b1 <__DATA_REGION_ORIGIN__+0x51>
    2c70:	0f 90       	pop	r0
    2c72:	0f be       	out	0x3f, r0	; 63
    2c74:	68 e2       	ldi	r22, 0x28	; 40
    2c76:	70 e0       	ldi	r23, 0x00	; 0
    2c78:	c8 01       	movw	r24, r16
    2c7a:	0e 94 36 13 	call	0x266c	; 0x266c <vTaskDelayUntil>
    2c7e:	81 e0       	ldi	r24, 0x01	; 1
    2c80:	e8 1a       	sub	r14, r24
    2c82:	f1 08       	sbc	r15, r1
    2c84:	09 f0       	breq	.+2      	; 0x2c88 <playSound+0x11c>
    2c86:	b5 cf       	rjmp	.-150    	; 0x2bf2 <playSound+0x86>
    2c88:	0e 94 f9 13 	call	0x27f2	; 0x27f2 <xTaskGetTickCount>
    2c8c:	9a 83       	std	Y+2, r25	; 0x02
    2c8e:	89 83       	std	Y+1, r24	; 0x01
    2c90:	6c e3       	ldi	r22, 0x3C	; 60
    2c92:	70 e0       	ldi	r23, 0x00	; 0
    2c94:	c8 01       	movw	r24, r16
    2c96:	0e 94 36 13 	call	0x266c	; 0x266c <vTaskDelayUntil>
    2c9a:	81 e0       	ldi	r24, 0x01	; 1
    2c9c:	88 1a       	sub	r8, r24
    2c9e:	91 08       	sbc	r9, r1
    2ca0:	09 f0       	breq	.+2      	; 0x2ca4 <playSound+0x138>
    2ca2:	a4 cf       	rjmp	.-184    	; 0x2bec <playSound+0x80>
    2ca4:	0e 94 f9 13 	call	0x27f2	; 0x27f2 <xTaskGetTickCount>
    2ca8:	9a 83       	std	Y+2, r25	; 0x02
    2caa:	89 83       	std	Y+1, r24	; 0x01
    2cac:	6e ee       	ldi	r22, 0xEE	; 238
    2cae:	72 e0       	ldi	r23, 0x02	; 2
    2cb0:	c8 01       	movw	r24, r16
    2cb2:	0e 94 36 13 	call	0x266c	; 0x266c <vTaskDelayUntil>
    2cb6:	77 cf       	rjmp	.-274    	; 0x2ba6 <playSound+0x3a>
    2cb8:	85 e0       	ldi	r24, 0x05	; 5
    2cba:	e8 2e       	mov	r14, r24
    2cbc:	f1 2c       	mov	r15, r1
    2cbe:	8e 01       	movw	r16, r28
    2cc0:	0f 5f       	subi	r16, 0xFF	; 255
    2cc2:	1f 4f       	sbci	r17, 0xFF	; 255
    2cc4:	94 e1       	ldi	r25, 0x14	; 20
    2cc6:	a9 2e       	mov	r10, r25
    2cc8:	2a e0       	ldi	r18, 0x0A	; 10
    2cca:	b2 2e       	mov	r11, r18
    2ccc:	33 e2       	ldi	r19, 0x23	; 35
    2cce:	c3 2e       	mov	r12, r19
    2cd0:	4e e0       	ldi	r20, 0x0E	; 14
    2cd2:	d4 2e       	mov	r13, r20
    2cd4:	0e 94 f9 13 	call	0x27f2	; 0x27f2 <xTaskGetTickCount>
    2cd8:	9a 83       	std	Y+2, r25	; 0x02
    2cda:	89 83       	std	Y+1, r24	; 0x01
    2cdc:	0f b6       	in	r0, 0x3f	; 63
    2cde:	f8 94       	cli
    2ce0:	0f 92       	push	r0
    2ce2:	53 9a       	sbi	0x0a, 3	; 10
    2ce4:	a0 92 b3 00 	sts	0x00B3, r10	; 0x8000b3 <__DATA_REGION_ORIGIN__+0x53>
    2ce8:	b0 92 b4 00 	sts	0x00B4, r11	; 0x8000b4 <__DATA_REGION_ORIGIN__+0x54>
    2cec:	10 92 b2 00 	sts	0x00B2, r1	; 0x8000b2 <__DATA_REGION_ORIGIN__+0x52>
    2cf0:	10 92 70 00 	sts	0x0070, r1	; 0x800070 <__DATA_REGION_ORIGIN__+0x10>
    2cf4:	c0 92 b0 00 	sts	0x00B0, r12	; 0x8000b0 <__DATA_REGION_ORIGIN__+0x50>
    2cf8:	d0 92 b1 00 	sts	0x00B1, r13	; 0x8000b1 <__DATA_REGION_ORIGIN__+0x51>
    2cfc:	0f 90       	pop	r0
    2cfe:	0f be       	out	0x3f, r0	; 63
    2d00:	62 e3       	ldi	r22, 0x32	; 50
    2d02:	70 e0       	ldi	r23, 0x00	; 0
    2d04:	c8 01       	movw	r24, r16
    2d06:	0e 94 36 13 	call	0x266c	; 0x266c <vTaskDelayUntil>
    2d0a:	0e 94 f9 13 	call	0x27f2	; 0x27f2 <xTaskGetTickCount>
    2d0e:	9a 83       	std	Y+2, r25	; 0x02
    2d10:	89 83       	std	Y+1, r24	; 0x01
    2d12:	0f b6       	in	r0, 0x3f	; 63
    2d14:	f8 94       	cli
    2d16:	0f 92       	push	r0
    2d18:	10 92 b1 00 	sts	0x00B1, r1	; 0x8000b1 <__DATA_REGION_ORIGIN__+0x51>
    2d1c:	0f 90       	pop	r0
    2d1e:	0f be       	out	0x3f, r0	; 63
    2d20:	62 e3       	ldi	r22, 0x32	; 50
    2d22:	70 e0       	ldi	r23, 0x00	; 0
    2d24:	c8 01       	movw	r24, r16
    2d26:	0e 94 36 13 	call	0x266c	; 0x266c <vTaskDelayUntil>
    2d2a:	81 e0       	ldi	r24, 0x01	; 1
    2d2c:	e8 1a       	sub	r14, r24
    2d2e:	f1 08       	sbc	r15, r1
    2d30:	09 f0       	breq	.+2      	; 0x2d34 <playSound+0x1c8>
    2d32:	d0 cf       	rjmp	.-96     	; 0x2cd4 <playSound+0x168>
    2d34:	38 cf       	rjmp	.-400    	; 0x2ba6 <playSound+0x3a>
    2d36:	0e 94 f9 13 	call	0x27f2	; 0x27f2 <xTaskGetTickCount>
    2d3a:	9a 83       	std	Y+2, r25	; 0x02
    2d3c:	89 83       	std	Y+1, r24	; 0x01
    2d3e:	0f b6       	in	r0, 0x3f	; 63
    2d40:	f8 94       	cli
    2d42:	0f 92       	push	r0
    2d44:	53 9a       	sbi	0x0a, 3	; 10
    2d46:	84 e1       	ldi	r24, 0x14	; 20
    2d48:	80 93 b3 00 	sts	0x00B3, r24	; 0x8000b3 <__DATA_REGION_ORIGIN__+0x53>
    2d4c:	8a e0       	ldi	r24, 0x0A	; 10
    2d4e:	80 93 b4 00 	sts	0x00B4, r24	; 0x8000b4 <__DATA_REGION_ORIGIN__+0x54>
    2d52:	10 92 b2 00 	sts	0x00B2, r1	; 0x8000b2 <__DATA_REGION_ORIGIN__+0x52>
    2d56:	10 92 70 00 	sts	0x0070, r1	; 0x800070 <__DATA_REGION_ORIGIN__+0x10>
    2d5a:	03 e2       	ldi	r16, 0x23	; 35
    2d5c:	00 93 b0 00 	sts	0x00B0, r16	; 0x8000b0 <__DATA_REGION_ORIGIN__+0x50>
    2d60:	1e e0       	ldi	r17, 0x0E	; 14
    2d62:	10 93 b1 00 	sts	0x00B1, r17	; 0x8000b1 <__DATA_REGION_ORIGIN__+0x51>
    2d66:	0f 90       	pop	r0
    2d68:	0f be       	out	0x3f, r0	; 63
    2d6a:	68 ee       	ldi	r22, 0xE8	; 232
    2d6c:	73 e0       	ldi	r23, 0x03	; 3
    2d6e:	ce 01       	movw	r24, r28
    2d70:	01 96       	adiw	r24, 0x01	; 1
    2d72:	0e 94 36 13 	call	0x266c	; 0x266c <vTaskDelayUntil>
    2d76:	0e 94 f9 13 	call	0x27f2	; 0x27f2 <xTaskGetTickCount>
    2d7a:	9a 83       	std	Y+2, r25	; 0x02
    2d7c:	89 83       	std	Y+1, r24	; 0x01
    2d7e:	0f b6       	in	r0, 0x3f	; 63
    2d80:	f8 94       	cli
    2d82:	0f 92       	push	r0
    2d84:	53 9a       	sbi	0x0a, 3	; 10
    2d86:	80 e2       	ldi	r24, 0x20	; 32
    2d88:	80 93 b3 00 	sts	0x00B3, r24	; 0x8000b3 <__DATA_REGION_ORIGIN__+0x53>
    2d8c:	80 e1       	ldi	r24, 0x10	; 16
    2d8e:	80 93 b4 00 	sts	0x00B4, r24	; 0x8000b4 <__DATA_REGION_ORIGIN__+0x54>
    2d92:	10 92 b2 00 	sts	0x00B2, r1	; 0x8000b2 <__DATA_REGION_ORIGIN__+0x52>
    2d96:	10 92 70 00 	sts	0x0070, r1	; 0x800070 <__DATA_REGION_ORIGIN__+0x10>
    2d9a:	00 93 b0 00 	sts	0x00B0, r16	; 0x8000b0 <__DATA_REGION_ORIGIN__+0x50>
    2d9e:	10 93 b1 00 	sts	0x00B1, r17	; 0x8000b1 <__DATA_REGION_ORIGIN__+0x51>
    2da2:	0f 90       	pop	r0
    2da4:	0f be       	out	0x3f, r0	; 63
    2da6:	68 ee       	ldi	r22, 0xE8	; 232
    2da8:	73 e0       	ldi	r23, 0x03	; 3
    2daa:	ce 01       	movw	r24, r28
    2dac:	01 96       	adiw	r24, 0x01	; 1
    2dae:	0e 94 36 13 	call	0x266c	; 0x266c <vTaskDelayUntil>
    2db2:	0f b6       	in	r0, 0x3f	; 63
    2db4:	f8 94       	cli
    2db6:	0f 92       	push	r0
    2db8:	10 92 b1 00 	sts	0x00B1, r1	; 0x8000b1 <__DATA_REGION_ORIGIN__+0x51>
    2dbc:	0f 90       	pop	r0
    2dbe:	0f be       	out	0x3f, r0	; 63
    2dc0:	f2 ce       	rjmp	.-540    	; 0x2ba6 <playSound+0x3a>

00002dc2 <task_speaker>:
    2dc2:	ec 01       	movw	r28, r24
    2dc4:	89 2b       	or	r24, r25
    2dc6:	91 f4       	brne	.+36     	; 0x2dec <task_speaker+0x2a>
    2dc8:	80 e0       	ldi	r24, 0x00	; 0
    2dca:	90 e0       	ldi	r25, 0x00	; 0
    2dcc:	0e 94 2e 11 	call	0x225c	; 0x225c <vTaskDelete>
    2dd0:	0d c0       	rjmp	.+26     	; 0x2dec <task_speaker+0x2a>
    2dd2:	8b 81       	ldd	r24, Y+3	; 0x03
    2dd4:	81 11       	cpse	r24, r1
    2dd6:	16 c0       	rjmp	.+44     	; 0x2e04 <task_speaker+0x42>
    2dd8:	8c 81       	ldd	r24, Y+4	; 0x04
    2dda:	81 11       	cpse	r24, r1
    2ddc:	16 c0       	rjmp	.+44     	; 0x2e0a <task_speaker+0x48>
    2dde:	8d 81       	ldd	r24, Y+5	; 0x05
    2de0:	81 11       	cpse	r24, r1
    2de2:	16 c0       	rjmp	.+44     	; 0x2e10 <task_speaker+0x4e>
    2de4:	81 e0       	ldi	r24, 0x01	; 1
    2de6:	90 e0       	ldi	r25, 0x00	; 0
    2de8:	0e 94 a7 13 	call	0x274e	; 0x274e <vTaskDelay>
    2dec:	8a 81       	ldd	r24, Y+2	; 0x02
    2dee:	88 23       	and	r24, r24
    2df0:	81 f3       	breq	.-32     	; 0x2dd2 <task_speaker+0x10>
    2df2:	80 e0       	ldi	r24, 0x00	; 0
    2df4:	90 e0       	ldi	r25, 0x00	; 0
    2df6:	fe 01       	movw	r30, r28
    2df8:	e8 0f       	add	r30, r24
    2dfa:	f9 1f       	adc	r31, r25
    2dfc:	82 81       	ldd	r24, Z+2	; 0x02
    2dfe:	0e 94 b6 15 	call	0x2b6c	; 0x2b6c <playSound>
    2e02:	f0 cf       	rjmp	.-32     	; 0x2de4 <task_speaker+0x22>
    2e04:	81 e0       	ldi	r24, 0x01	; 1
    2e06:	90 e0       	ldi	r25, 0x00	; 0
    2e08:	f6 cf       	rjmp	.-20     	; 0x2df6 <task_speaker+0x34>
    2e0a:	82 e0       	ldi	r24, 0x02	; 2
    2e0c:	90 e0       	ldi	r25, 0x00	; 0
    2e0e:	f3 cf       	rjmp	.-26     	; 0x2df6 <task_speaker+0x34>
    2e10:	83 e0       	ldi	r24, 0x03	; 3
    2e12:	90 e0       	ldi	r25, 0x00	; 0
    2e14:	f0 cf       	rjmp	.-32     	; 0x2df6 <task_speaker+0x34>

00002e16 <u8g2_DrawBox>:
    2e16:	df 92       	push	r13
    2e18:	ef 92       	push	r14
    2e1a:	ff 92       	push	r15
    2e1c:	0f 93       	push	r16
    2e1e:	1f 93       	push	r17
    2e20:	cf 93       	push	r28
    2e22:	df 93       	push	r29
    2e24:	7c 01       	movw	r14, r24
    2e26:	16 2f       	mov	r17, r22
    2e28:	c4 2f       	mov	r28, r20
    2e2a:	d2 2e       	mov	r13, r18
    2e2c:	d0 2f       	mov	r29, r16
    2e2e:	04 2f       	mov	r16, r20
    2e30:	0d 0f       	add	r16, r29
    2e32:	26 2f       	mov	r18, r22
    2e34:	2d 0d       	add	r18, r13
    2e36:	0e 94 d1 1e 	call	0x3da2	; 0x3da2 <u8g2_IsIntersection>
    2e3a:	81 11       	cpse	r24, r1
    2e3c:	0a c0       	rjmp	.+20     	; 0x2e52 <u8g2_DrawBox+0x3c>
    2e3e:	0b c0       	rjmp	.+22     	; 0x2e56 <u8g2_DrawBox+0x40>
    2e40:	00 e0       	ldi	r16, 0x00	; 0
    2e42:	2d 2d       	mov	r18, r13
    2e44:	4c 2f       	mov	r20, r28
    2e46:	61 2f       	mov	r22, r17
    2e48:	c7 01       	movw	r24, r14
    2e4a:	0e 94 31 1e 	call	0x3c62	; 0x3c62 <u8g2_DrawHVLine>
    2e4e:	cf 5f       	subi	r28, 0xFF	; 255
    2e50:	d1 50       	subi	r29, 0x01	; 1
    2e52:	d1 11       	cpse	r29, r1
    2e54:	f5 cf       	rjmp	.-22     	; 0x2e40 <u8g2_DrawBox+0x2a>
    2e56:	df 91       	pop	r29
    2e58:	cf 91       	pop	r28
    2e5a:	1f 91       	pop	r17
    2e5c:	0f 91       	pop	r16
    2e5e:	ff 90       	pop	r15
    2e60:	ef 90       	pop	r14
    2e62:	df 90       	pop	r13
    2e64:	08 95       	ret

00002e66 <u8g2_DrawFrame>:
    2e66:	cf 92       	push	r12
    2e68:	df 92       	push	r13
    2e6a:	ef 92       	push	r14
    2e6c:	ff 92       	push	r15
    2e6e:	0f 93       	push	r16
    2e70:	1f 93       	push	r17
    2e72:	cf 93       	push	r28
    2e74:	df 93       	push	r29
    2e76:	7c 01       	movw	r14, r24
    2e78:	d6 2f       	mov	r29, r22
    2e7a:	c4 2f       	mov	r28, r20
    2e7c:	d2 2e       	mov	r13, r18
    2e7e:	10 2f       	mov	r17, r16
    2e80:	c6 2e       	mov	r12, r22
    2e82:	c2 0e       	add	r12, r18
    2e84:	04 2f       	mov	r16, r20
    2e86:	01 0f       	add	r16, r17
    2e88:	2c 2d       	mov	r18, r12
    2e8a:	0e 94 d1 1e 	call	0x3da2	; 0x3da2 <u8g2_IsIntersection>
    2e8e:	81 11       	cpse	r24, r1
    2e90:	09 c0       	rjmp	.+18     	; 0x2ea4 <u8g2_DrawFrame+0x3e>
    2e92:	df 91       	pop	r29
    2e94:	cf 91       	pop	r28
    2e96:	1f 91       	pop	r17
    2e98:	0f 91       	pop	r16
    2e9a:	ff 90       	pop	r15
    2e9c:	ef 90       	pop	r14
    2e9e:	df 90       	pop	r13
    2ea0:	cf 90       	pop	r12
    2ea2:	08 95       	ret
    2ea4:	00 e0       	ldi	r16, 0x00	; 0
    2ea6:	2d 2d       	mov	r18, r13
    2ea8:	4c 2f       	mov	r20, r28
    2eaa:	6d 2f       	mov	r22, r29
    2eac:	c7 01       	movw	r24, r14
    2eae:	0e 94 31 1e 	call	0x3c62	; 0x3c62 <u8g2_DrawHVLine>
    2eb2:	12 30       	cpi	r17, 0x02	; 2
    2eb4:	70 f3       	brcs	.-36     	; 0x2e92 <u8g2_DrawFrame+0x2c>
    2eb6:	12 50       	subi	r17, 0x02	; 2
    2eb8:	cf 5f       	subi	r28, 0xFF	; 255
    2eba:	11 11       	cpse	r17, r1
    2ebc:	08 c0       	rjmp	.+16     	; 0x2ece <u8g2_DrawFrame+0x68>
    2ebe:	00 e0       	ldi	r16, 0x00	; 0
    2ec0:	2d 2d       	mov	r18, r13
    2ec2:	4c 2f       	mov	r20, r28
    2ec4:	6d 2f       	mov	r22, r29
    2ec6:	c7 01       	movw	r24, r14
    2ec8:	0e 94 31 1e 	call	0x3c62	; 0x3c62 <u8g2_DrawHVLine>
    2ecc:	e2 cf       	rjmp	.-60     	; 0x2e92 <u8g2_DrawFrame+0x2c>
    2ece:	01 e0       	ldi	r16, 0x01	; 1
    2ed0:	21 2f       	mov	r18, r17
    2ed2:	4c 2f       	mov	r20, r28
    2ed4:	6d 2f       	mov	r22, r29
    2ed6:	c7 01       	movw	r24, r14
    2ed8:	0e 94 31 1e 	call	0x3c62	; 0x3c62 <u8g2_DrawHVLine>
    2edc:	6f ef       	ldi	r22, 0xFF	; 255
    2ede:	6c 0d       	add	r22, r12
    2ee0:	21 2f       	mov	r18, r17
    2ee2:	4c 2f       	mov	r20, r28
    2ee4:	c7 01       	movw	r24, r14
    2ee6:	0e 94 31 1e 	call	0x3c62	; 0x3c62 <u8g2_DrawHVLine>
    2eea:	c1 0f       	add	r28, r17
    2eec:	e8 cf       	rjmp	.-48     	; 0x2ebe <u8g2_DrawFrame+0x58>

00002eee <u8g2_send_buffer>:
    2eee:	af 92       	push	r10
    2ef0:	bf 92       	push	r11
    2ef2:	cf 92       	push	r12
    2ef4:	df 92       	push	r13
    2ef6:	ef 92       	push	r14
    2ef8:	ff 92       	push	r15
    2efa:	0f 93       	push	r16
    2efc:	1f 93       	push	r17
    2efe:	cf 93       	push	r28
    2f00:	df 93       	push	r29
    2f02:	6c 01       	movw	r12, r24
    2f04:	dc 01       	movw	r26, r24
    2f06:	94 96       	adiw	r26, 0x24	; 36
    2f08:	bc 90       	ld	r11, X
    2f0a:	94 97       	sbiw	r26, 0x24	; 36
    2f0c:	95 96       	adiw	r26, 0x25	; 37
    2f0e:	dc 91       	ld	r29, X
    2f10:	95 97       	sbiw	r26, 0x25	; 37
    2f12:	ed 91       	ld	r30, X+
    2f14:	fc 91       	ld	r31, X
    2f16:	a1 88       	ldd	r10, Z+17	; 0x11
    2f18:	cd 2f       	mov	r28, r29
    2f1a:	e1 2c       	mov	r14, r1
    2f1c:	f1 2c       	mov	r15, r1
    2f1e:	08 c0       	rjmp	.+16     	; 0x2f30 <u8g2_send_buffer+0x42>
    2f20:	ff ef       	ldi	r31, 0xFF	; 255
    2f22:	ef 1a       	sub	r14, r31
    2f24:	ff 0a       	sbc	r15, r31
    2f26:	ca 15       	cp	r28, r10
    2f28:	10 f5       	brcc	.+68     	; 0x2f6e <u8g2_send_buffer+0x80>
    2f2a:	d6 01       	movw	r26, r12
    2f2c:	ed 91       	ld	r30, X+
    2f2e:	fc 91       	ld	r31, X
    2f30:	20 89       	ldd	r18, Z+16	; 0x10
    2f32:	f6 01       	movw	r30, r12
    2f34:	02 a1       	ldd	r16, Z+34	; 0x22
    2f36:	13 a1       	ldd	r17, Z+35	; 0x23
    2f38:	42 2f       	mov	r20, r18
    2f3a:	50 e0       	ldi	r21, 0x00	; 0
    2f3c:	44 0f       	add	r20, r20
    2f3e:	55 1f       	adc	r21, r21
    2f40:	44 0f       	add	r20, r20
    2f42:	55 1f       	adc	r21, r21
    2f44:	44 0f       	add	r20, r20
    2f46:	55 1f       	adc	r21, r21
    2f48:	4e 9d       	mul	r20, r14
    2f4a:	c0 01       	movw	r24, r0
    2f4c:	4f 9d       	mul	r20, r15
    2f4e:	90 0d       	add	r25, r0
    2f50:	5e 9d       	mul	r21, r14
    2f52:	90 0d       	add	r25, r0
    2f54:	11 24       	eor	r1, r1
    2f56:	08 0f       	add	r16, r24
    2f58:	19 1f       	adc	r17, r25
    2f5a:	4c 2f       	mov	r20, r28
    2f5c:	60 e0       	ldi	r22, 0x00	; 0
    2f5e:	c6 01       	movw	r24, r12
    2f60:	0e 94 6d 21 	call	0x42da	; 0x42da <u8x8_DrawTile>
    2f64:	cf 5f       	subi	r28, 0xFF	; 255
    2f66:	8c 2f       	mov	r24, r28
    2f68:	8d 1b       	sub	r24, r29
    2f6a:	8b 15       	cp	r24, r11
    2f6c:	c8 f2       	brcs	.-78     	; 0x2f20 <u8g2_send_buffer+0x32>
    2f6e:	df 91       	pop	r29
    2f70:	cf 91       	pop	r28
    2f72:	1f 91       	pop	r17
    2f74:	0f 91       	pop	r16
    2f76:	ff 90       	pop	r15
    2f78:	ef 90       	pop	r14
    2f7a:	df 90       	pop	r13
    2f7c:	cf 90       	pop	r12
    2f7e:	bf 90       	pop	r11
    2f80:	af 90       	pop	r10
    2f82:	08 95       	ret

00002f84 <u8g2_SetBufferCurrTileRow>:
    2f84:	cf 93       	push	r28
    2f86:	df 93       	push	r29
    2f88:	ec 01       	movw	r28, r24
    2f8a:	6d a3       	std	Y+37, r22	; 0x25
    2f8c:	e8 a1       	ldd	r30, Y+32	; 0x20
    2f8e:	f9 a1       	ldd	r31, Y+33	; 0x21
    2f90:	01 90       	ld	r0, Z+
    2f92:	f0 81       	ld	r31, Z
    2f94:	e0 2d       	mov	r30, r0
    2f96:	09 95       	icall
    2f98:	e8 a1       	ldd	r30, Y+32	; 0x20
    2f9a:	f9 a1       	ldd	r31, Y+33	; 0x21
    2f9c:	02 80       	ldd	r0, Z+2	; 0x02
    2f9e:	f3 81       	ldd	r31, Z+3	; 0x03
    2fa0:	e0 2d       	mov	r30, r0
    2fa2:	ce 01       	movw	r24, r28
    2fa4:	df 91       	pop	r29
    2fa6:	cf 91       	pop	r28
    2fa8:	09 94       	ijmp

00002faa <u8g2_FirstPage>:
    2faa:	cf 93       	push	r28
    2fac:	df 93       	push	r29
    2fae:	ec 01       	movw	r28, r24
    2fb0:	fc 01       	movw	r30, r24
    2fb2:	ec 59       	subi	r30, 0x9C	; 156
    2fb4:	ff 4f       	sbci	r31, 0xFF	; 255
    2fb6:	80 81       	ld	r24, Z
    2fb8:	88 23       	and	r24, r24
    2fba:	99 f0       	breq	.+38     	; 0x2fe2 <u8g2_FirstPage+0x38>
    2fbc:	e8 81       	ld	r30, Y
    2fbe:	f9 81       	ldd	r31, Y+1	; 0x01
    2fc0:	80 89       	ldd	r24, Z+16	; 0x10
    2fc2:	4c a1       	ldd	r20, Y+36	; 0x24
    2fc4:	84 9f       	mul	r24, r20
    2fc6:	a0 01       	movw	r20, r0
    2fc8:	11 24       	eor	r1, r1
    2fca:	44 0f       	add	r20, r20
    2fcc:	55 1f       	adc	r21, r21
    2fce:	44 0f       	add	r20, r20
    2fd0:	55 1f       	adc	r21, r21
    2fd2:	44 0f       	add	r20, r20
    2fd4:	55 1f       	adc	r21, r21
    2fd6:	60 e0       	ldi	r22, 0x00	; 0
    2fd8:	70 e0       	ldi	r23, 0x00	; 0
    2fda:	8a a1       	ldd	r24, Y+34	; 0x22
    2fdc:	9b a1       	ldd	r25, Y+35	; 0x23
    2fde:	0e 94 81 24 	call	0x4902	; 0x4902 <memset>
    2fe2:	60 e0       	ldi	r22, 0x00	; 0
    2fe4:	ce 01       	movw	r24, r28
    2fe6:	df 91       	pop	r29
    2fe8:	cf 91       	pop	r28
    2fea:	0c 94 c2 17 	jmp	0x2f84	; 0x2f84 <u8g2_SetBufferCurrTileRow>

00002fee <u8g2_NextPage>:
    2fee:	1f 93       	push	r17
    2ff0:	cf 93       	push	r28
    2ff2:	df 93       	push	r29
    2ff4:	ec 01       	movw	r28, r24
    2ff6:	0e 94 77 17 	call	0x2eee	; 0x2eee <u8g2_send_buffer>
    2ffa:	1d a1       	ldd	r17, Y+37	; 0x25
    2ffc:	8c a1       	ldd	r24, Y+36	; 0x24
    2ffe:	18 0f       	add	r17, r24
    3000:	e8 81       	ld	r30, Y
    3002:	f9 81       	ldd	r31, Y+1	; 0x01
    3004:	91 89       	ldd	r25, Z+17	; 0x11
    3006:	19 17       	cp	r17, r25
    3008:	00 f5       	brcc	.+64     	; 0x304a <u8g2_NextPage+0x5c>
    300a:	de 01       	movw	r26, r28
    300c:	ac 59       	subi	r26, 0x9C	; 156
    300e:	bf 4f       	sbci	r27, 0xFF	; 255
    3010:	9c 91       	ld	r25, X
    3012:	91 11       	cpse	r25, r1
    3014:	09 c0       	rjmp	.+18     	; 0x3028 <u8g2_NextPage+0x3a>
    3016:	61 2f       	mov	r22, r17
    3018:	ce 01       	movw	r24, r28
    301a:	0e 94 c2 17 	call	0x2f84	; 0x2f84 <u8g2_SetBufferCurrTileRow>
    301e:	81 e0       	ldi	r24, 0x01	; 1
    3020:	df 91       	pop	r29
    3022:	cf 91       	pop	r28
    3024:	1f 91       	pop	r17
    3026:	08 95       	ret
    3028:	40 89       	ldd	r20, Z+16	; 0x10
    302a:	48 9f       	mul	r20, r24
    302c:	a0 01       	movw	r20, r0
    302e:	11 24       	eor	r1, r1
    3030:	44 0f       	add	r20, r20
    3032:	55 1f       	adc	r21, r21
    3034:	44 0f       	add	r20, r20
    3036:	55 1f       	adc	r21, r21
    3038:	44 0f       	add	r20, r20
    303a:	55 1f       	adc	r21, r21
    303c:	60 e0       	ldi	r22, 0x00	; 0
    303e:	70 e0       	ldi	r23, 0x00	; 0
    3040:	8a a1       	ldd	r24, Y+34	; 0x22
    3042:	9b a1       	ldd	r25, Y+35	; 0x23
    3044:	0e 94 81 24 	call	0x4902	; 0x4902 <memset>
    3048:	e6 cf       	rjmp	.-52     	; 0x3016 <u8g2_NextPage+0x28>
    304a:	ce 01       	movw	r24, r28
    304c:	0e 94 ae 21 	call	0x435c	; 0x435c <u8x8_RefreshDisplay>
    3050:	80 e0       	ldi	r24, 0x00	; 0
    3052:	df 91       	pop	r29
    3054:	cf 91       	pop	r28
    3056:	1f 91       	pop	r17
    3058:	08 95       	ret

0000305a <u8g2_draw_circle_section>:
    305a:	cf 92       	push	r12
    305c:	df 92       	push	r13
    305e:	ef 92       	push	r14
    3060:	0f 93       	push	r16
    3062:	1f 93       	push	r17
    3064:	cf 93       	push	r28
    3066:	df 93       	push	r29
    3068:	6c 01       	movw	r12, r24
    306a:	d6 2f       	mov	r29, r22
    306c:	14 2f       	mov	r17, r20
    306e:	c2 2f       	mov	r28, r18
    3070:	e0 fc       	sbrc	r14, 0
    3072:	41 c0       	rjmp	.+130    	; 0x30f6 <u8g2_draw_circle_section+0x9c>
    3074:	e1 fc       	sbrc	r14, 1
    3076:	30 c0       	rjmp	.+96     	; 0x30d8 <u8g2_draw_circle_section+0x7e>
    3078:	e3 fc       	sbrc	r14, 3
    307a:	1f c0       	rjmp	.+62     	; 0x30ba <u8g2_draw_circle_section+0x60>
    307c:	e2 fc       	sbrc	r14, 2
    307e:	08 c0       	rjmp	.+16     	; 0x3090 <u8g2_draw_circle_section+0x36>
    3080:	df 91       	pop	r29
    3082:	cf 91       	pop	r28
    3084:	1f 91       	pop	r17
    3086:	0f 91       	pop	r16
    3088:	ef 90       	pop	r14
    308a:	df 90       	pop	r13
    308c:	cf 90       	pop	r12
    308e:	08 95       	ret
    3090:	40 2f       	mov	r20, r16
    3092:	41 0f       	add	r20, r17
    3094:	6c 2f       	mov	r22, r28
    3096:	6d 1b       	sub	r22, r29
    3098:	c6 01       	movw	r24, r12
    309a:	0e 94 a0 1e 	call	0x3d40	; 0x3d40 <u8g2_DrawPixel>
    309e:	40 2f       	mov	r20, r16
    30a0:	4d 0f       	add	r20, r29
    30a2:	6c 2f       	mov	r22, r28
    30a4:	61 1b       	sub	r22, r17
    30a6:	c6 01       	movw	r24, r12
    30a8:	df 91       	pop	r29
    30aa:	cf 91       	pop	r28
    30ac:	1f 91       	pop	r17
    30ae:	0f 91       	pop	r16
    30b0:	ef 90       	pop	r14
    30b2:	df 90       	pop	r13
    30b4:	cf 90       	pop	r12
    30b6:	0c 94 a0 1e 	jmp	0x3d40	; 0x3d40 <u8g2_DrawPixel>
    30ba:	40 2f       	mov	r20, r16
    30bc:	41 0f       	add	r20, r17
    30be:	6c 2f       	mov	r22, r28
    30c0:	6d 0f       	add	r22, r29
    30c2:	c6 01       	movw	r24, r12
    30c4:	0e 94 a0 1e 	call	0x3d40	; 0x3d40 <u8g2_DrawPixel>
    30c8:	40 2f       	mov	r20, r16
    30ca:	4d 0f       	add	r20, r29
    30cc:	61 2f       	mov	r22, r17
    30ce:	6c 0f       	add	r22, r28
    30d0:	c6 01       	movw	r24, r12
    30d2:	0e 94 a0 1e 	call	0x3d40	; 0x3d40 <u8g2_DrawPixel>
    30d6:	d2 cf       	rjmp	.-92     	; 0x307c <u8g2_draw_circle_section+0x22>
    30d8:	40 2f       	mov	r20, r16
    30da:	41 1b       	sub	r20, r17
    30dc:	6c 2f       	mov	r22, r28
    30de:	6d 1b       	sub	r22, r29
    30e0:	c6 01       	movw	r24, r12
    30e2:	0e 94 a0 1e 	call	0x3d40	; 0x3d40 <u8g2_DrawPixel>
    30e6:	40 2f       	mov	r20, r16
    30e8:	4d 1b       	sub	r20, r29
    30ea:	6c 2f       	mov	r22, r28
    30ec:	61 1b       	sub	r22, r17
    30ee:	c6 01       	movw	r24, r12
    30f0:	0e 94 a0 1e 	call	0x3d40	; 0x3d40 <u8g2_DrawPixel>
    30f4:	c1 cf       	rjmp	.-126    	; 0x3078 <u8g2_draw_circle_section+0x1e>
    30f6:	40 2f       	mov	r20, r16
    30f8:	41 1b       	sub	r20, r17
    30fa:	62 2f       	mov	r22, r18
    30fc:	6d 0f       	add	r22, r29
    30fe:	0e 94 a0 1e 	call	0x3d40	; 0x3d40 <u8g2_DrawPixel>
    3102:	40 2f       	mov	r20, r16
    3104:	4d 1b       	sub	r20, r29
    3106:	61 2f       	mov	r22, r17
    3108:	6c 0f       	add	r22, r28
    310a:	c6 01       	movw	r24, r12
    310c:	0e 94 a0 1e 	call	0x3d40	; 0x3d40 <u8g2_DrawPixel>
    3110:	b1 cf       	rjmp	.-158    	; 0x3074 <u8g2_draw_circle_section+0x1a>

00003112 <u8g2_DrawCircle>:
    3112:	8f 92       	push	r8
    3114:	9f 92       	push	r9
    3116:	af 92       	push	r10
    3118:	bf 92       	push	r11
    311a:	cf 92       	push	r12
    311c:	df 92       	push	r13
    311e:	ef 92       	push	r14
    3120:	ff 92       	push	r15
    3122:	0f 93       	push	r16
    3124:	1f 93       	push	r17
    3126:	cf 93       	push	r28
    3128:	df 93       	push	r29
    312a:	5c 01       	movw	r10, r24
    312c:	c6 2e       	mov	r12, r22
    312e:	94 2e       	mov	r9, r20
    3130:	c2 2f       	mov	r28, r18
    3132:	80 2e       	mov	r8, r16
    3134:	01 e0       	ldi	r16, 0x01	; 1
    3136:	02 0f       	add	r16, r18
    3138:	04 0f       	add	r16, r20
    313a:	21 e0       	ldi	r18, 0x01	; 1
    313c:	26 0f       	add	r18, r22
    313e:	2c 0f       	add	r18, r28
    3140:	4c 1b       	sub	r20, r28
    3142:	6c 1b       	sub	r22, r28
    3144:	0e 94 d1 1e 	call	0x3da2	; 0x3da2 <u8g2_IsIntersection>
    3148:	81 11       	cpse	r24, r1
    314a:	0d c0       	rjmp	.+26     	; 0x3166 <u8g2_DrawCircle+0x54>
    314c:	df 91       	pop	r29
    314e:	cf 91       	pop	r28
    3150:	1f 91       	pop	r17
    3152:	0f 91       	pop	r16
    3154:	ff 90       	pop	r15
    3156:	ef 90       	pop	r14
    3158:	df 90       	pop	r13
    315a:	cf 90       	pop	r12
    315c:	bf 90       	pop	r11
    315e:	af 90       	pop	r10
    3160:	9f 90       	pop	r9
    3162:	8f 90       	pop	r8
    3164:	08 95       	ret
    3166:	d1 e0       	ldi	r29, 0x01	; 1
    3168:	dc 1b       	sub	r29, r28
    316a:	dc 2e       	mov	r13, r28
    316c:	d1 94       	neg	r13
    316e:	dd 0c       	add	r13, r13
    3170:	e8 2c       	mov	r14, r8
    3172:	09 2d       	mov	r16, r9
    3174:	2c 2d       	mov	r18, r12
    3176:	4c 2f       	mov	r20, r28
    3178:	60 e0       	ldi	r22, 0x00	; 0
    317a:	c5 01       	movw	r24, r10
    317c:	0e 94 2d 18 	call	0x305a	; 0x305a <u8g2_draw_circle_section>
    3180:	cc 23       	and	r28, r28
    3182:	21 f3       	breq	.-56     	; 0x314c <u8g2_DrawCircle+0x3a>
    3184:	83 e0       	ldi	r24, 0x03	; 3
    3186:	f8 2e       	mov	r15, r24
    3188:	10 e0       	ldi	r17, 0x00	; 0
    318a:	d7 fd       	sbrc	r29, 7
    318c:	04 c0       	rjmp	.+8      	; 0x3196 <u8g2_DrawCircle+0x84>
    318e:	c1 50       	subi	r28, 0x01	; 1
    3190:	d3 94       	inc	r13
    3192:	d3 94       	inc	r13
    3194:	dd 0d       	add	r29, r13
    3196:	1f 5f       	subi	r17, 0xFF	; 255
    3198:	df 0d       	add	r29, r15
    319a:	e8 2c       	mov	r14, r8
    319c:	09 2d       	mov	r16, r9
    319e:	2c 2d       	mov	r18, r12
    31a0:	4c 2f       	mov	r20, r28
    31a2:	61 2f       	mov	r22, r17
    31a4:	c5 01       	movw	r24, r10
    31a6:	0e 94 2d 18 	call	0x305a	; 0x305a <u8g2_draw_circle_section>
    31aa:	f3 94       	inc	r15
    31ac:	f3 94       	inc	r15
    31ae:	1c 17       	cp	r17, r28
    31b0:	60 f3       	brcs	.-40     	; 0x318a <u8g2_DrawCircle+0x78>
    31b2:	cc cf       	rjmp	.-104    	; 0x314c <u8g2_DrawCircle+0x3a>

000031b4 <u8g2_m_16_8_1>:
    31b4:	21 e0       	ldi	r18, 0x01	; 1
    31b6:	fc 01       	movw	r30, r24
    31b8:	20 83       	st	Z, r18
    31ba:	8e ec       	ldi	r24, 0xCE	; 206
    31bc:	97 e0       	ldi	r25, 0x07	; 7
    31be:	08 95       	ret

000031c0 <u8g2_Setup_ise97002ks_gu128x64_1>:
    31c0:	cf 92       	push	r12
    31c2:	df 92       	push	r13
    31c4:	ef 92       	push	r14
    31c6:	ff 92       	push	r15
    31c8:	0f 93       	push	r16
    31ca:	1f 93       	push	r17
    31cc:	cf 93       	push	r28
    31ce:	df 93       	push	r29
    31d0:	1f 92       	push	r1
    31d2:	cd b7       	in	r28, 0x3d	; 61
    31d4:	de b7       	in	r29, 0x3e	; 62
    31d6:	7c 01       	movw	r14, r24
    31d8:	6b 01       	movw	r12, r22
    31da:	89 01       	movw	r16, r18
    31dc:	9a 01       	movw	r18, r20
    31de:	4d ee       	ldi	r20, 0xED	; 237
    31e0:	50 e2       	ldi	r21, 0x20	; 32
    31e2:	68 eb       	ldi	r22, 0xB8	; 184
    31e4:	71 e2       	ldi	r23, 0x21	; 33
    31e6:	0e 94 ce 22 	call	0x459c	; 0x459c <u8x8_Setup>
    31ea:	ce 01       	movw	r24, r28
    31ec:	01 96       	adiw	r24, 0x01	; 1
    31ee:	0e 94 da 18 	call	0x31b4	; 0x31b4 <u8g2_m_16_8_1>
    31f2:	86 01       	movw	r16, r12
    31f4:	2c e8       	ldi	r18, 0x8C	; 140
    31f6:	3f e1       	ldi	r19, 0x1F	; 31
    31f8:	49 81       	ldd	r20, Y+1	; 0x01
    31fa:	bc 01       	movw	r22, r24
    31fc:	c7 01       	movw	r24, r14
    31fe:	0e 94 60 20 	call	0x40c0	; 0x40c0 <u8g2_SetupBuffer>
    3202:	0f 90       	pop	r0
    3204:	df 91       	pop	r29
    3206:	cf 91       	pop	r28
    3208:	1f 91       	pop	r17
    320a:	0f 91       	pop	r16
    320c:	ff 90       	pop	r15
    320e:	ef 90       	pop	r14
    3210:	df 90       	pop	r13
    3212:	cf 90       	pop	r12
    3214:	08 95       	ret

00003216 <u8g2_font_get_word>:
    3216:	fc 01       	movw	r30, r24
    3218:	e6 0f       	add	r30, r22
    321a:	f1 1d       	adc	r31, r1
    321c:	84 91       	lpm	r24, Z
    321e:	90 e0       	ldi	r25, 0x00	; 0
    3220:	98 2f       	mov	r25, r24
    3222:	88 27       	eor	r24, r24
    3224:	31 96       	adiw	r30, 0x01	; 1
    3226:	e4 91       	lpm	r30, Z
    3228:	8e 0f       	add	r24, r30
    322a:	91 1d       	adc	r25, r1
    322c:	08 95       	ret

0000322e <u8g2_font_calc_vref_font>:
    322e:	80 e0       	ldi	r24, 0x00	; 0
    3230:	08 95       	ret

00003232 <u8g2_font_get_word.constprop.2>:
    3232:	fc 01       	movw	r30, r24
    3234:	84 91       	lpm	r24, Z
    3236:	90 e0       	ldi	r25, 0x00	; 0
    3238:	98 2f       	mov	r25, r24
    323a:	88 27       	eor	r24, r24
    323c:	31 96       	adiw	r30, 0x01	; 1
    323e:	e4 91       	lpm	r30, Z
    3240:	8e 0f       	add	r24, r30
    3242:	91 1d       	adc	r25, r1
    3244:	08 95       	ret

00003246 <u8g2_font_get_word.constprop.3>:
    3246:	fc 01       	movw	r30, r24
    3248:	32 96       	adiw	r30, 0x02	; 2
    324a:	24 91       	lpm	r18, Z
    324c:	30 e0       	ldi	r19, 0x00	; 0
    324e:	32 2f       	mov	r19, r18
    3250:	22 27       	eor	r18, r18
    3252:	31 96       	adiw	r30, 0x01	; 1
    3254:	84 91       	lpm	r24, Z
    3256:	a9 01       	movw	r20, r18
    3258:	48 0f       	add	r20, r24
    325a:	51 1d       	adc	r21, r1
    325c:	ca 01       	movw	r24, r20
    325e:	08 95       	ret

00003260 <u8g2_add_vector_y>:
    3260:	21 30       	cpi	r18, 0x01	; 1
    3262:	49 f0       	breq	.+18     	; 0x3276 <u8g2_add_vector_y+0x16>
    3264:	30 f0       	brcs	.+12     	; 0x3272 <u8g2_add_vector_y+0x12>
    3266:	22 30       	cpi	r18, 0x02	; 2
    3268:	11 f4       	brne	.+4      	; 0x326e <u8g2_add_vector_y+0xe>
    326a:	84 1b       	sub	r24, r20
    326c:	08 95       	ret
    326e:	86 1b       	sub	r24, r22
    3270:	08 95       	ret
    3272:	84 0f       	add	r24, r20
    3274:	08 95       	ret
    3276:	86 0f       	add	r24, r22
    3278:	08 95       	ret

0000327a <u8g2_add_vector_x>:
    327a:	21 30       	cpi	r18, 0x01	; 1
    327c:	49 f0       	breq	.+18     	; 0x3290 <u8g2_add_vector_x+0x16>
    327e:	30 f0       	brcs	.+12     	; 0x328c <u8g2_add_vector_x+0x12>
    3280:	22 30       	cpi	r18, 0x02	; 2
    3282:	11 f4       	brne	.+4      	; 0x3288 <u8g2_add_vector_x+0xe>
    3284:	86 1b       	sub	r24, r22
    3286:	08 95       	ret
    3288:	84 0f       	add	r24, r20
    328a:	08 95       	ret
    328c:	86 0f       	add	r24, r22
    328e:	08 95       	ret
    3290:	84 1b       	sub	r24, r20
    3292:	08 95       	ret

00003294 <u8g2_font_decode_glyph>:
    3294:	2f 92       	push	r2
    3296:	3f 92       	push	r3
    3298:	4f 92       	push	r4
    329a:	5f 92       	push	r5
    329c:	6f 92       	push	r6
    329e:	7f 92       	push	r7
    32a0:	8f 92       	push	r8
    32a2:	9f 92       	push	r9
    32a4:	af 92       	push	r10
    32a6:	bf 92       	push	r11
    32a8:	cf 92       	push	r12
    32aa:	df 92       	push	r13
    32ac:	ef 92       	push	r14
    32ae:	ff 92       	push	r15
    32b0:	0f 93       	push	r16
    32b2:	1f 93       	push	r17
    32b4:	cf 93       	push	r28
    32b6:	df 93       	push	r29
    32b8:	cd b7       	in	r28, 0x3d	; 61
    32ba:	de b7       	in	r29, 0x3e	; 62
    32bc:	61 97       	sbiw	r28, 0x11	; 17
    32be:	0f b6       	in	r0, 0x3f	; 63
    32c0:	f8 94       	cli
    32c2:	de bf       	out	0x3e, r29	; 62
    32c4:	0f be       	out	0x3f, r0	; 63
    32c6:	cd bf       	out	0x3d, r28	; 61
    32c8:	dc 01       	movw	r26, r24
    32ca:	da 96       	adiw	r26, 0x3a	; 58
    32cc:	7c 93       	st	X, r23
    32ce:	6e 93       	st	-X, r22
    32d0:	d9 97       	sbiw	r26, 0x39	; 57
    32d2:	9c 01       	movw	r18, r24
    32d4:	2f 5b       	subi	r18, 0xBF	; 191
    32d6:	3f 4f       	sbci	r19, 0xFF	; 255
    32d8:	3c 83       	std	Y+4, r19	; 0x04
    32da:	2b 83       	std	Y+3, r18	; 0x03
    32dc:	f9 01       	movw	r30, r18
    32de:	10 82       	st	Z, r1
    32e0:	39 96       	adiw	r30, 0x09	; 9
    32e2:	40 81       	ld	r20, Z
    32e4:	fb 01       	movw	r30, r22
    32e6:	c4 90       	lpm	r12, Z
    32e8:	48 30       	cpi	r20, 0x08	; 8
    32ea:	08 f4       	brcc	.+2      	; 0x32ee <u8g2_font_decode_glyph+0x5a>
    32ec:	82 c2       	rjmp	.+1284   	; 0x37f2 <u8g2_font_decode_glyph+0x55e>
    32ee:	9b 01       	movw	r18, r22
    32f0:	2f 5f       	subi	r18, 0xFF	; 255
    32f2:	3f 4f       	sbci	r19, 0xFF	; 255
    32f4:	da 96       	adiw	r26, 0x3a	; 58
    32f6:	3c 93       	st	X, r19
    32f8:	2e 93       	st	-X, r18
    32fa:	d9 97       	sbiw	r26, 0x39	; 57
    32fc:	f9 01       	movw	r30, r18
    32fe:	84 91       	lpm	r24, Z
    3300:	68 ef       	ldi	r22, 0xF8	; 248
    3302:	64 0f       	add	r22, r20
    3304:	79 01       	movw	r14, r18
    3306:	81 e0       	ldi	r24, 0x01	; 1
    3308:	90 e0       	ldi	r25, 0x00	; 0
    330a:	01 c0       	rjmp	.+2      	; 0x330e <u8g2_font_decode_glyph+0x7a>
    330c:	88 0f       	add	r24, r24
    330e:	4a 95       	dec	r20
    3310:	ea f7       	brpl	.-6      	; 0x330c <u8g2_font_decode_glyph+0x78>
    3312:	81 50       	subi	r24, 0x01	; 1
    3314:	c8 22       	and	r12, r24
    3316:	eb 81       	ldd	r30, Y+3	; 0x03
    3318:	fc 81       	ldd	r31, Y+4	; 0x04
    331a:	60 83       	st	Z, r22
    331c:	df 96       	adiw	r26, 0x3f	; 63
    331e:	cc 92       	st	X, r12
    3320:	df 97       	sbiw	r26, 0x3f	; 63
    3322:	cd 01       	movw	r24, r26
    3324:	85 5b       	subi	r24, 0xB5	; 181
    3326:	9f 4f       	sbci	r25, 0xFF	; 255
    3328:	fc 01       	movw	r30, r24
    332a:	70 81       	ld	r23, Z
    332c:	f7 01       	movw	r30, r14
    332e:	84 91       	lpm	r24, Z
    3330:	90 e0       	ldi	r25, 0x00	; 0
    3332:	06 2e       	mov	r0, r22
    3334:	02 c0       	rjmp	.+4      	; 0x333a <u8g2_font_decode_glyph+0xa6>
    3336:	95 95       	asr	r25
    3338:	87 95       	ror	r24
    333a:	0a 94       	dec	r0
    333c:	e2 f7       	brpl	.-8      	; 0x3336 <u8g2_font_decode_glyph+0xa2>
    333e:	16 2f       	mov	r17, r22
    3340:	17 0f       	add	r17, r23
    3342:	18 30       	cpi	r17, 0x08	; 8
    3344:	88 f0       	brcs	.+34     	; 0x3368 <u8g2_font_decode_glyph+0xd4>
    3346:	2f 5f       	subi	r18, 0xFF	; 255
    3348:	3f 4f       	sbci	r19, 0xFF	; 255
    334a:	da 96       	adiw	r26, 0x3a	; 58
    334c:	3c 93       	st	X, r19
    334e:	2e 93       	st	-X, r18
    3350:	d9 97       	sbiw	r26, 0x39	; 57
    3352:	f9 01       	movw	r30, r18
    3354:	44 91       	lpm	r20, Z
    3356:	98 e0       	ldi	r25, 0x08	; 8
    3358:	96 1b       	sub	r25, r22
    335a:	01 c0       	rjmp	.+2      	; 0x335e <u8g2_font_decode_glyph+0xca>
    335c:	44 0f       	add	r20, r20
    335e:	9a 95       	dec	r25
    3360:	ea f7       	brpl	.-6      	; 0x335c <u8g2_font_decode_glyph+0xc8>
    3362:	84 2b       	or	r24, r20
    3364:	18 50       	subi	r17, 0x08	; 8
    3366:	79 01       	movw	r14, r18
    3368:	41 e0       	ldi	r20, 0x01	; 1
    336a:	50 e0       	ldi	r21, 0x00	; 0
    336c:	01 c0       	rjmp	.+2      	; 0x3370 <u8g2_font_decode_glyph+0xdc>
    336e:	44 0f       	add	r20, r20
    3370:	7a 95       	dec	r23
    3372:	ea f7       	brpl	.-6      	; 0x336e <u8g2_font_decode_glyph+0xda>
    3374:	41 50       	subi	r20, 0x01	; 1
    3376:	48 23       	and	r20, r24
    3378:	49 87       	std	Y+9, r20	; 0x09
    337a:	eb 81       	ldd	r30, Y+3	; 0x03
    337c:	fc 81       	ldd	r31, Y+4	; 0x04
    337e:	10 83       	st	Z, r17
    3380:	cd 01       	movw	r24, r26
    3382:	80 5c       	subi	r24, 0xC0	; 192
    3384:	9f 4f       	sbci	r25, 0xFF	; 255
    3386:	fc 01       	movw	r30, r24
    3388:	40 83       	st	Z, r20
    338a:	4d 01       	movw	r8, r26
    338c:	f3 e6       	ldi	r31, 0x63	; 99
    338e:	8f 0e       	add	r8, r31
    3390:	91 1c       	adc	r9, r1
    3392:	f4 01       	movw	r30, r8
    3394:	90 81       	ld	r25, Z
    3396:	1d 01       	movw	r2, r26
    3398:	f3 e4       	ldi	r31, 0x43	; 67
    339a:	2f 0e       	add	r2, r31
    339c:	31 1c       	adc	r3, r1
    339e:	f1 01       	movw	r30, r2
    33a0:	90 83       	st	Z, r25
    33a2:	ad 01       	movw	r20, r26
    33a4:	4c 5b       	subi	r20, 0xBC	; 188
    33a6:	5f 4f       	sbci	r21, 0xFF	; 255
    33a8:	5e 83       	std	Y+6, r21	; 0x06
    33aa:	4d 83       	std	Y+5, r20	; 0x05
    33ac:	81 e0       	ldi	r24, 0x01	; 1
    33ae:	91 11       	cpse	r25, r1
    33b0:	80 e0       	ldi	r24, 0x00	; 0
    33b2:	ed 81       	ldd	r30, Y+5	; 0x05
    33b4:	fe 81       	ldd	r31, Y+6	; 0x06
    33b6:	80 83       	st	Z, r24
    33b8:	cd 01       	movw	r24, r26
    33ba:	84 5b       	subi	r24, 0xB4	; 180
    33bc:	9f 4f       	sbci	r25, 0xFF	; 255
    33be:	fc 01       	movw	r30, r24
    33c0:	70 81       	ld	r23, Z
    33c2:	f7 01       	movw	r30, r14
    33c4:	84 91       	lpm	r24, Z
    33c6:	90 e0       	ldi	r25, 0x00	; 0
    33c8:	01 2e       	mov	r0, r17
    33ca:	02 c0       	rjmp	.+4      	; 0x33d0 <u8g2_font_decode_glyph+0x13c>
    33cc:	95 95       	asr	r25
    33ce:	87 95       	ror	r24
    33d0:	0a 94       	dec	r0
    33d2:	e2 f7       	brpl	.-8      	; 0x33cc <u8g2_font_decode_glyph+0x138>
    33d4:	61 2f       	mov	r22, r17
    33d6:	67 0f       	add	r22, r23
    33d8:	68 30       	cpi	r22, 0x08	; 8
    33da:	88 f0       	brcs	.+34     	; 0x33fe <u8g2_font_decode_glyph+0x16a>
    33dc:	2f 5f       	subi	r18, 0xFF	; 255
    33de:	3f 4f       	sbci	r19, 0xFF	; 255
    33e0:	da 96       	adiw	r26, 0x3a	; 58
    33e2:	3c 93       	st	X, r19
    33e4:	2e 93       	st	-X, r18
    33e6:	d9 97       	sbiw	r26, 0x39	; 57
    33e8:	f9 01       	movw	r30, r18
    33ea:	44 91       	lpm	r20, Z
    33ec:	98 e0       	ldi	r25, 0x08	; 8
    33ee:	91 1b       	sub	r25, r17
    33f0:	01 c0       	rjmp	.+2      	; 0x33f4 <u8g2_font_decode_glyph+0x160>
    33f2:	44 0f       	add	r20, r20
    33f4:	9a 95       	dec	r25
    33f6:	ea f7       	brpl	.-6      	; 0x33f2 <u8g2_font_decode_glyph+0x15e>
    33f8:	84 2b       	or	r24, r20
    33fa:	68 50       	subi	r22, 0x08	; 8
    33fc:	79 01       	movw	r14, r18
    33fe:	eb 81       	ldd	r30, Y+3	; 0x03
    3400:	fc 81       	ldd	r31, Y+4	; 0x04
    3402:	60 83       	st	Z, r22
    3404:	41 e0       	ldi	r20, 0x01	; 1
    3406:	50 e0       	ldi	r21, 0x00	; 0
    3408:	8a 01       	movw	r16, r20
    340a:	07 2e       	mov	r0, r23
    340c:	01 c0       	rjmp	.+2      	; 0x3410 <u8g2_font_decode_glyph+0x17c>
    340e:	00 0f       	add	r16, r16
    3410:	0a 94       	dec	r0
    3412:	ea f7       	brpl	.-6      	; 0x340e <u8g2_font_decode_glyph+0x17a>
    3414:	01 50       	subi	r16, 0x01	; 1
    3416:	80 23       	and	r24, r16
    3418:	9f ef       	ldi	r25, 0xFF	; 255
    341a:	97 0f       	add	r25, r23
    341c:	01 c0       	rjmp	.+2      	; 0x3420 <u8g2_font_decode_glyph+0x18c>
    341e:	44 0f       	add	r20, r20
    3420:	9a 95       	dec	r25
    3422:	ea f7       	brpl	.-6      	; 0x341e <u8g2_font_decode_glyph+0x18a>
    3424:	78 2e       	mov	r7, r24
    3426:	74 1a       	sub	r7, r20
    3428:	cd 01       	movw	r24, r26
    342a:	83 5b       	subi	r24, 0xB3	; 179
    342c:	9f 4f       	sbci	r25, 0xFF	; 255
    342e:	fc 01       	movw	r30, r24
    3430:	00 81       	ld	r16, Z
    3432:	f7 01       	movw	r30, r14
    3434:	84 91       	lpm	r24, Z
    3436:	90 e0       	ldi	r25, 0x00	; 0
    3438:	06 2e       	mov	r0, r22
    343a:	02 c0       	rjmp	.+4      	; 0x3440 <u8g2_font_decode_glyph+0x1ac>
    343c:	95 95       	asr	r25
    343e:	87 95       	ror	r24
    3440:	0a 94       	dec	r0
    3442:	e2 f7       	brpl	.-8      	; 0x343c <u8g2_font_decode_glyph+0x1a8>
    3444:	10 2f       	mov	r17, r16
    3446:	16 0f       	add	r17, r22
    3448:	18 30       	cpi	r17, 0x08	; 8
    344a:	88 f0       	brcs	.+34     	; 0x346e <u8g2_font_decode_glyph+0x1da>
    344c:	2f 5f       	subi	r18, 0xFF	; 255
    344e:	3f 4f       	sbci	r19, 0xFF	; 255
    3450:	da 96       	adiw	r26, 0x3a	; 58
    3452:	3c 93       	st	X, r19
    3454:	2e 93       	st	-X, r18
    3456:	d9 97       	sbiw	r26, 0x39	; 57
    3458:	f9 01       	movw	r30, r18
    345a:	44 91       	lpm	r20, Z
    345c:	98 e0       	ldi	r25, 0x08	; 8
    345e:	96 1b       	sub	r25, r22
    3460:	01 c0       	rjmp	.+2      	; 0x3464 <u8g2_font_decode_glyph+0x1d0>
    3462:	44 0f       	add	r20, r20
    3464:	9a 95       	dec	r25
    3466:	ea f7       	brpl	.-6      	; 0x3462 <u8g2_font_decode_glyph+0x1ce>
    3468:	84 2b       	or	r24, r20
    346a:	18 50       	subi	r17, 0x08	; 8
    346c:	79 01       	movw	r14, r18
    346e:	41 e0       	ldi	r20, 0x01	; 1
    3470:	50 e0       	ldi	r21, 0x00	; 0
    3472:	ba 01       	movw	r22, r20
    3474:	00 2e       	mov	r0, r16
    3476:	01 c0       	rjmp	.+2      	; 0x347a <u8g2_font_decode_glyph+0x1e6>
    3478:	66 0f       	add	r22, r22
    347a:	0a 94       	dec	r0
    347c:	ea f7       	brpl	.-6      	; 0x3478 <u8g2_font_decode_glyph+0x1e4>
    347e:	61 50       	subi	r22, 0x01	; 1
    3480:	86 23       	and	r24, r22
    3482:	eb 81       	ldd	r30, Y+3	; 0x03
    3484:	fc 81       	ldd	r31, Y+4	; 0x04
    3486:	10 83       	st	Z, r17
    3488:	01 50       	subi	r16, 0x01	; 1
    348a:	01 c0       	rjmp	.+2      	; 0x348e <u8g2_font_decode_glyph+0x1fa>
    348c:	44 0f       	add	r20, r20
    348e:	0a 95       	dec	r16
    3490:	ea f7       	brpl	.-6      	; 0x348c <u8g2_font_decode_glyph+0x1f8>
    3492:	99 85       	ldd	r25, Y+9	; 0x09
    3494:	94 1b       	sub	r25, r20
    3496:	ad 01       	movw	r20, r26
    3498:	42 5b       	subi	r20, 0xB2	; 178
    349a:	5f 4f       	sbci	r21, 0xFF	; 255
    349c:	fa 01       	movw	r30, r20
    349e:	60 81       	ld	r22, Z
    34a0:	f7 01       	movw	r30, r14
    34a2:	44 91       	lpm	r20, Z
    34a4:	50 e0       	ldi	r21, 0x00	; 0
    34a6:	01 2e       	mov	r0, r17
    34a8:	02 c0       	rjmp	.+4      	; 0x34ae <u8g2_font_decode_glyph+0x21a>
    34aa:	55 95       	asr	r21
    34ac:	47 95       	ror	r20
    34ae:	0a 94       	dec	r0
    34b0:	e2 f7       	brpl	.-8      	; 0x34aa <u8g2_font_decode_glyph+0x216>
    34b2:	76 2f       	mov	r23, r22
    34b4:	71 0f       	add	r23, r17
    34b6:	78 30       	cpi	r23, 0x08	; 8
    34b8:	78 f0       	brcs	.+30     	; 0x34d8 <u8g2_font_decode_glyph+0x244>
    34ba:	f9 01       	movw	r30, r18
    34bc:	31 96       	adiw	r30, 0x01	; 1
    34be:	da 96       	adiw	r26, 0x3a	; 58
    34c0:	fc 93       	st	X, r31
    34c2:	ee 93       	st	-X, r30
    34c4:	d9 97       	sbiw	r26, 0x39	; 57
    34c6:	24 91       	lpm	r18, Z
    34c8:	58 e0       	ldi	r21, 0x08	; 8
    34ca:	51 1b       	sub	r21, r17
    34cc:	01 c0       	rjmp	.+2      	; 0x34d0 <u8g2_font_decode_glyph+0x23c>
    34ce:	22 0f       	add	r18, r18
    34d0:	5a 95       	dec	r21
    34d2:	ea f7       	brpl	.-6      	; 0x34ce <u8g2_font_decode_glyph+0x23a>
    34d4:	42 2b       	or	r20, r18
    34d6:	78 50       	subi	r23, 0x08	; 8
    34d8:	eb 81       	ldd	r30, Y+3	; 0x03
    34da:	fc 81       	ldd	r31, Y+4	; 0x04
    34dc:	70 83       	st	Z, r23
    34de:	21 e0       	ldi	r18, 0x01	; 1
    34e0:	30 e0       	ldi	r19, 0x00	; 0
    34e2:	f9 01       	movw	r30, r18
    34e4:	06 2e       	mov	r0, r22
    34e6:	01 c0       	rjmp	.+2      	; 0x34ea <u8g2_font_decode_glyph+0x256>
    34e8:	ee 0f       	add	r30, r30
    34ea:	0a 94       	dec	r0
    34ec:	ea f7       	brpl	.-6      	; 0x34e8 <u8g2_font_decode_glyph+0x254>
    34ee:	e1 50       	subi	r30, 0x01	; 1
    34f0:	4e 23       	and	r20, r30
    34f2:	61 50       	subi	r22, 0x01	; 1
    34f4:	01 c0       	rjmp	.+2      	; 0x34f8 <u8g2_font_decode_glyph+0x264>
    34f6:	22 0f       	add	r18, r18
    34f8:	6a 95       	dec	r22
    34fa:	ea f7       	brpl	.-6      	; 0x34f6 <u8g2_font_decode_glyph+0x262>
    34fc:	42 1b       	sub	r20, r18
    34fe:	48 8b       	std	Y+16, r20	; 0x10
    3500:	1c 14       	cp	r1, r12
    3502:	0c f0       	brlt	.+2      	; 0x3506 <u8g2_font_decode_glyph+0x272>
    3504:	5c c1       	rjmp	.+696    	; 0x37be <u8g2_font_decode_glyph+0x52a>
    3506:	7d 01       	movw	r14, r26
    3508:	5d 01       	movw	r10, r26
    350a:	f5 e4       	ldi	r31, 0x45	; 69
    350c:	af 0e       	add	r10, r31
    350e:	b1 1c       	adc	r11, r1
    3510:	d5 01       	movw	r26, r10
    3512:	1c 91       	ld	r17, X
    3514:	89 0f       	add	r24, r25
    3516:	08 2f       	mov	r16, r24
    3518:	01 95       	neg	r16
    351a:	21 2f       	mov	r18, r17
    351c:	40 2f       	mov	r20, r16
    351e:	67 2d       	mov	r22, r7
    3520:	f7 01       	movw	r30, r14
    3522:	83 ad       	ldd	r24, Z+59	; 0x3b
    3524:	0e 94 3d 19 	call	0x327a	; 0x327a <u8g2_add_vector_x>
    3528:	d8 2e       	mov	r13, r24
    352a:	d7 01       	movw	r26, r14
    352c:	db 96       	adiw	r26, 0x3b	; 59
    352e:	8c 93       	st	X, r24
    3530:	db 97       	sbiw	r26, 0x3b	; 59
    3532:	21 2f       	mov	r18, r17
    3534:	40 2f       	mov	r20, r16
    3536:	67 2d       	mov	r22, r7
    3538:	dc 96       	adiw	r26, 0x3c	; 60
    353a:	8c 91       	ld	r24, X
    353c:	0e 94 30 19 	call	0x3260	; 0x3260 <u8g2_add_vector_y>
    3540:	f7 01       	movw	r30, r14
    3542:	84 af       	std	Z+60, r24	; 0x3c
    3544:	11 30       	cpi	r17, 0x01	; 1
    3546:	09 f4       	brne	.+2      	; 0x354a <u8g2_font_decode_glyph+0x2b6>
    3548:	8a c1       	rjmp	.+788    	; 0x385e <u8g2_font_decode_glyph+0x5ca>
    354a:	08 f4       	brcc	.+2      	; 0x354e <u8g2_font_decode_glyph+0x2ba>
    354c:	90 c1       	rjmp	.+800    	; 0x386e <u8g2_font_decode_glyph+0x5da>
    354e:	12 30       	cpi	r17, 0x02	; 2
    3550:	09 f4       	brne	.+2      	; 0x3554 <u8g2_font_decode_glyph+0x2c0>
    3552:	79 c1       	rjmp	.+754    	; 0x3846 <u8g2_font_decode_glyph+0x5b2>
    3554:	13 30       	cpi	r17, 0x03	; 3
    3556:	09 f0       	breq	.+2      	; 0x355a <u8g2_font_decode_glyph+0x2c6>
    3558:	8f c1       	rjmp	.+798    	; 0x3878 <u8g2_font_decode_glyph+0x5e4>
    355a:	29 85       	ldd	r18, Y+9	; 0x09
    355c:	2d 0d       	add	r18, r13
    355e:	98 2f       	mov	r25, r24
    3560:	9c 19       	sub	r25, r12
    3562:	01 e0       	ldi	r16, 0x01	; 1
    3564:	08 0f       	add	r16, r24
    3566:	81 e0       	ldi	r24, 0x01	; 1
    3568:	89 0f       	add	r24, r25
    356a:	48 2f       	mov	r20, r24
    356c:	6d 2d       	mov	r22, r13
    356e:	c7 01       	movw	r24, r14
    3570:	0e 94 d1 1e 	call	0x3da2	; 0x3da2 <u8g2_IsIntersection>
    3574:	88 23       	and	r24, r24
    3576:	09 f4       	brne	.+2      	; 0x357a <u8g2_font_decode_glyph+0x2e6>
    3578:	22 c1       	rjmp	.+580    	; 0x37be <u8g2_font_decode_glyph+0x52a>
    357a:	d7 01       	movw	r26, r14
    357c:	dd 96       	adiw	r26, 0x3d	; 61
    357e:	1c 92       	st	X, r1
    3580:	dd 97       	sbiw	r26, 0x3d	; 61
    3582:	de 96       	adiw	r26, 0x3e	; 62
    3584:	1c 92       	st	X, r1
    3586:	de 97       	sbiw	r26, 0x3e	; 62
    3588:	eb 81       	ldd	r30, Y+3	; 0x03
    358a:	fc 81       	ldd	r31, Y+4	; 0x04
    358c:	30 81       	ld	r19, Z
    358e:	d9 96       	adiw	r26, 0x39	; 57
    3590:	ed 91       	ld	r30, X+
    3592:	fc 91       	ld	r31, X
    3594:	da 97       	sbiw	r26, 0x3a	; 58
    3596:	a7 01       	movw	r20, r14
    3598:	48 5b       	subi	r20, 0xB8	; 184
    359a:	5f 4f       	sbci	r21, 0xFF	; 255
    359c:	5d 87       	std	Y+13, r21	; 0x0d
    359e:	4c 87       	std	Y+12, r20	; 0x0c
    35a0:	b7 01       	movw	r22, r14
    35a2:	67 5b       	subi	r22, 0xB7	; 183
    35a4:	7f 4f       	sbci	r23, 0xFF	; 255
    35a6:	7f 87       	std	Y+15, r23	; 0x0f
    35a8:	6e 87       	std	Y+14, r22	; 0x0e
    35aa:	c7 01       	movw	r24, r14
    35ac:	8e 5b       	subi	r24, 0xBE	; 190
    35ae:	9f 4f       	sbci	r25, 0xFF	; 255
    35b0:	9b 87       	std	Y+11, r25	; 0x0b
    35b2:	8a 87       	std	Y+10, r24	; 0x0a
    35b4:	88 e0       	ldi	r24, 0x08	; 8
    35b6:	58 2e       	mov	r5, r24
    35b8:	23 2f       	mov	r18, r19
    35ba:	3a 82       	std	Y+2, r3	; 0x02
    35bc:	29 82       	std	Y+1, r2	; 0x01
    35be:	ac 85       	ldd	r26, Y+12	; 0x0c
    35c0:	bd 85       	ldd	r27, Y+13	; 0x0d
    35c2:	4c 91       	ld	r20, X
    35c4:	84 91       	lpm	r24, Z
    35c6:	90 e0       	ldi	r25, 0x00	; 0
    35c8:	02 2e       	mov	r0, r18
    35ca:	02 c0       	rjmp	.+4      	; 0x35d0 <u8g2_font_decode_glyph+0x33c>
    35cc:	95 95       	asr	r25
    35ce:	87 95       	ror	r24
    35d0:	0a 94       	dec	r0
    35d2:	e2 f7       	brpl	.-8      	; 0x35cc <u8g2_font_decode_glyph+0x338>
    35d4:	34 2f       	mov	r19, r20
    35d6:	32 0f       	add	r19, r18
    35d8:	38 30       	cpi	r19, 0x08	; 8
    35da:	78 f0       	brcs	.+30     	; 0x35fa <u8g2_font_decode_glyph+0x366>
    35dc:	31 96       	adiw	r30, 0x01	; 1
    35de:	d7 01       	movw	r26, r14
    35e0:	da 96       	adiw	r26, 0x3a	; 58
    35e2:	fc 93       	st	X, r31
    35e4:	ee 93       	st	-X, r30
    35e6:	d9 97       	sbiw	r26, 0x39	; 57
    35e8:	64 91       	lpm	r22, Z
    35ea:	95 2d       	mov	r25, r5
    35ec:	92 1b       	sub	r25, r18
    35ee:	01 c0       	rjmp	.+2      	; 0x35f2 <u8g2_font_decode_glyph+0x35e>
    35f0:	66 0f       	add	r22, r22
    35f2:	9a 95       	dec	r25
    35f4:	ea f7       	brpl	.-6      	; 0x35f0 <u8g2_font_decode_glyph+0x35c>
    35f6:	86 2b       	or	r24, r22
    35f8:	38 50       	subi	r19, 0x08	; 8
    35fa:	61 e0       	ldi	r22, 0x01	; 1
    35fc:	70 e0       	ldi	r23, 0x00	; 0
    35fe:	02 c0       	rjmp	.+4      	; 0x3604 <u8g2_font_decode_glyph+0x370>
    3600:	66 0f       	add	r22, r22
    3602:	77 1f       	adc	r23, r23
    3604:	4a 95       	dec	r20
    3606:	e2 f7       	brpl	.-8      	; 0x3600 <u8g2_font_decode_glyph+0x36c>
    3608:	ab 01       	movw	r20, r22
    360a:	41 50       	subi	r20, 0x01	; 1
    360c:	48 23       	and	r20, r24
    360e:	48 87       	std	Y+8, r20	; 0x08
    3610:	ab 81       	ldd	r26, Y+3	; 0x03
    3612:	bc 81       	ldd	r27, Y+4	; 0x04
    3614:	3c 93       	st	X, r19
    3616:	ae 85       	ldd	r26, Y+14	; 0x0e
    3618:	bf 85       	ldd	r27, Y+15	; 0x0f
    361a:	7c 91       	ld	r23, X
    361c:	84 91       	lpm	r24, Z
    361e:	90 e0       	ldi	r25, 0x00	; 0
    3620:	03 2e       	mov	r0, r19
    3622:	02 c0       	rjmp	.+4      	; 0x3628 <u8g2_font_decode_glyph+0x394>
    3624:	95 95       	asr	r25
    3626:	87 95       	ror	r24
    3628:	0a 94       	dec	r0
    362a:	e2 f7       	brpl	.-8      	; 0x3624 <u8g2_font_decode_glyph+0x390>
    362c:	67 2f       	mov	r22, r23
    362e:	63 0f       	add	r22, r19
    3630:	68 30       	cpi	r22, 0x08	; 8
    3632:	90 f0       	brcs	.+36     	; 0x3658 <u8g2_font_decode_glyph+0x3c4>
    3634:	31 96       	adiw	r30, 0x01	; 1
    3636:	d7 01       	movw	r26, r14
    3638:	da 96       	adiw	r26, 0x3a	; 58
    363a:	fc 93       	st	X, r31
    363c:	ee 93       	st	-X, r30
    363e:	d9 97       	sbiw	r26, 0x39	; 57
    3640:	24 91       	lpm	r18, Z
    3642:	42 2f       	mov	r20, r18
    3644:	50 e0       	ldi	r21, 0x00	; 0
    3646:	95 2d       	mov	r25, r5
    3648:	93 1b       	sub	r25, r19
    364a:	9a 01       	movw	r18, r20
    364c:	01 c0       	rjmp	.+2      	; 0x3650 <u8g2_font_decode_glyph+0x3bc>
    364e:	22 0f       	add	r18, r18
    3650:	9a 95       	dec	r25
    3652:	ea f7       	brpl	.-6      	; 0x364e <u8g2_font_decode_glyph+0x3ba>
    3654:	82 2b       	or	r24, r18
    3656:	68 50       	subi	r22, 0x08	; 8
    3658:	21 e0       	ldi	r18, 0x01	; 1
    365a:	30 e0       	ldi	r19, 0x00	; 0
    365c:	01 c0       	rjmp	.+2      	; 0x3660 <u8g2_font_decode_glyph+0x3cc>
    365e:	22 0f       	add	r18, r18
    3660:	7a 95       	dec	r23
    3662:	ea f7       	brpl	.-6      	; 0x365e <u8g2_font_decode_glyph+0x3ca>
    3664:	21 50       	subi	r18, 0x01	; 1
    3666:	28 23       	and	r18, r24
    3668:	2f 83       	std	Y+7, r18	; 0x07
    366a:	eb 81       	ldd	r30, Y+3	; 0x03
    366c:	fc 81       	ldd	r31, Y+4	; 0x04
    366e:	60 83       	st	Z, r22
    3670:	d7 01       	movw	r26, r14
    3672:	dd 96       	adiw	r26, 0x3d	; 61
    3674:	bc 91       	ld	r27, X
    3676:	b9 8b       	std	Y+17, r27	; 0x11
    3678:	f7 01       	movw	r30, r14
    367a:	d6 ac       	ldd	r13, Z+62	; 0x3e
    367c:	7b 2e       	mov	r7, r27
    367e:	1d 2d       	mov	r17, r13
    3680:	68 84       	ldd	r6, Y+8	; 0x08
    3682:	d7 01       	movw	r26, r14
    3684:	df 96       	adiw	r26, 0x3f	; 63
    3686:	4c 90       	ld	r4, X
    3688:	df 97       	sbiw	r26, 0x3f	; 63
    368a:	db 96       	adiw	r26, 0x3b	; 59
    368c:	cc 90       	ld	r12, X
    368e:	db 97       	sbiw	r26, 0x3b	; 59
    3690:	dc 96       	adiw	r26, 0x3c	; 60
    3692:	0c 91       	ld	r16, X
    3694:	30 2e       	mov	r3, r16
    3696:	05 c0       	rjmp	.+10     	; 0x36a2 <u8g2_font_decode_glyph+0x40e>
    3698:	6d 14       	cp	r6, r13
    369a:	68 f1       	brcs	.+90     	; 0x36f6 <u8g2_font_decode_glyph+0x462>
    369c:	6d 18       	sub	r6, r13
    369e:	1f 5f       	subi	r17, 0xFF	; 255
    36a0:	71 2c       	mov	r7, r1
    36a2:	d4 2c       	mov	r13, r4
    36a4:	d7 18       	sub	r13, r7
    36a6:	f5 01       	movw	r30, r10
    36a8:	00 81       	ld	r16, Z
    36aa:	20 2f       	mov	r18, r16
    36ac:	41 2f       	mov	r20, r17
    36ae:	67 2d       	mov	r22, r7
    36b0:	8c 2d       	mov	r24, r12
    36b2:	0e 94 3d 19 	call	0x327a	; 0x327a <u8g2_add_vector_x>
    36b6:	28 2e       	mov	r2, r24
    36b8:	20 2f       	mov	r18, r16
    36ba:	41 2f       	mov	r20, r17
    36bc:	67 2d       	mov	r22, r7
    36be:	83 2d       	mov	r24, r3
    36c0:	0e 94 30 19 	call	0x3260	; 0x3260 <u8g2_add_vector_y>
    36c4:	aa 85       	ldd	r26, Y+10	; 0x0a
    36c6:	bb 85       	ldd	r27, Y+11	; 0x0b
    36c8:	9c 91       	ld	r25, X
    36ca:	91 11       	cpse	r25, r1
    36cc:	e5 cf       	rjmp	.-54     	; 0x3698 <u8g2_font_decode_glyph+0x404>
    36ce:	ed 81       	ldd	r30, Y+5	; 0x05
    36d0:	fe 81       	ldd	r31, Y+6	; 0x06
    36d2:	90 81       	ld	r25, Z
    36d4:	d4 01       	movw	r26, r8
    36d6:	9c 93       	st	X, r25
    36d8:	2d 2d       	mov	r18, r13
    36da:	6d 14       	cp	r6, r13
    36dc:	08 f4       	brcc	.+2      	; 0x36e0 <u8g2_font_decode_glyph+0x44c>
    36de:	26 2d       	mov	r18, r6
    36e0:	48 2f       	mov	r20, r24
    36e2:	62 2d       	mov	r22, r2
    36e4:	c7 01       	movw	r24, r14
    36e6:	0e 94 31 1e 	call	0x3c62	; 0x3c62 <u8g2_DrawHVLine>
    36ea:	f7 01       	movw	r30, r14
    36ec:	47 ac       	ldd	r4, Z+63	; 0x3f
    36ee:	c3 ac       	ldd	r12, Z+59	; 0x3b
    36f0:	34 ac       	ldd	r3, Z+60	; 0x3c
    36f2:	6d 14       	cp	r6, r13
    36f4:	98 f6       	brcc	.-90     	; 0x369c <u8g2_font_decode_glyph+0x408>
    36f6:	76 0c       	add	r7, r6
    36f8:	d7 01       	movw	r26, r14
    36fa:	dd 96       	adiw	r26, 0x3d	; 61
    36fc:	7c 92       	st	X, r7
    36fe:	dd 97       	sbiw	r26, 0x3d	; 61
    3700:	de 96       	adiw	r26, 0x3e	; 62
    3702:	1c 93       	st	X, r17
    3704:	6f 80       	ldd	r6, Y+7	; 0x07
    3706:	8c 2d       	mov	r24, r12
    3708:	d3 2c       	mov	r13, r3
    370a:	47 18       	sub	r4, r7
    370c:	64 14       	cp	r6, r4
    370e:	08 f0       	brcs	.+2      	; 0x3712 <u8g2_font_decode_glyph+0x47e>
    3710:	74 c0       	rjmp	.+232    	; 0x37fa <u8g2_font_decode_glyph+0x566>
    3712:	0d 2d       	mov	r16, r13
    3714:	f5 01       	movw	r30, r10
    3716:	40 80       	ld	r4, Z
    3718:	d1 2e       	mov	r13, r17
    371a:	24 2d       	mov	r18, r4
    371c:	41 2f       	mov	r20, r17
    371e:	67 2d       	mov	r22, r7
    3720:	0e 94 3d 19 	call	0x327a	; 0x327a <u8g2_add_vector_x>
    3724:	c8 2e       	mov	r12, r24
    3726:	24 2d       	mov	r18, r4
    3728:	41 2f       	mov	r20, r17
    372a:	67 2d       	mov	r22, r7
    372c:	80 2f       	mov	r24, r16
    372e:	0e 94 30 19 	call	0x3260	; 0x3260 <u8g2_add_vector_y>
    3732:	a9 81       	ldd	r26, Y+1	; 0x01
    3734:	ba 81       	ldd	r27, Y+2	; 0x02
    3736:	9c 91       	ld	r25, X
    3738:	f4 01       	movw	r30, r8
    373a:	90 83       	st	Z, r25
    373c:	04 2d       	mov	r16, r4
    373e:	26 2d       	mov	r18, r6
    3740:	48 2f       	mov	r20, r24
    3742:	6c 2d       	mov	r22, r12
    3744:	c7 01       	movw	r24, r14
    3746:	0e 94 31 1e 	call	0x3c62	; 0x3c62 <u8g2_DrawHVLine>
    374a:	76 0c       	add	r7, r6
    374c:	d7 01       	movw	r26, r14
    374e:	dd 96       	adiw	r26, 0x3d	; 61
    3750:	7c 92       	st	X, r7
    3752:	dd 97       	sbiw	r26, 0x3d	; 61
    3754:	de 96       	adiw	r26, 0x3e	; 62
    3756:	1c 93       	st	X, r17
    3758:	de 97       	sbiw	r26, 0x3e	; 62
    375a:	eb 81       	ldd	r30, Y+3	; 0x03
    375c:	fc 81       	ldd	r31, Y+4	; 0x04
    375e:	30 81       	ld	r19, Z
    3760:	d9 96       	adiw	r26, 0x39	; 57
    3762:	ed 91       	ld	r30, X+
    3764:	fc 91       	ld	r31, X
    3766:	da 97       	sbiw	r26, 0x3a	; 58
    3768:	84 91       	lpm	r24, Z
    376a:	90 e0       	ldi	r25, 0x00	; 0
    376c:	03 2e       	mov	r0, r19
    376e:	02 c0       	rjmp	.+4      	; 0x3774 <u8g2_font_decode_glyph+0x4e0>
    3770:	95 95       	asr	r25
    3772:	87 95       	ror	r24
    3774:	0a 94       	dec	r0
    3776:	e2 f7       	brpl	.-8      	; 0x3770 <u8g2_font_decode_glyph+0x4dc>
    3778:	21 e0       	ldi	r18, 0x01	; 1
    377a:	23 0f       	add	r18, r19
    377c:	28 30       	cpi	r18, 0x08	; 8
    377e:	80 f0       	brcs	.+32     	; 0x37a0 <u8g2_font_decode_glyph+0x50c>
    3780:	31 96       	adiw	r30, 0x01	; 1
    3782:	d7 01       	movw	r26, r14
    3784:	da 96       	adiw	r26, 0x3a	; 58
    3786:	fc 93       	st	X, r31
    3788:	ee 93       	st	-X, r30
    378a:	d9 97       	sbiw	r26, 0x39	; 57
    378c:	44 91       	lpm	r20, Z
    378e:	95 2d       	mov	r25, r5
    3790:	93 1b       	sub	r25, r19
    3792:	01 c0       	rjmp	.+2      	; 0x3796 <u8g2_font_decode_glyph+0x502>
    3794:	44 0f       	add	r20, r20
    3796:	9a 95       	dec	r25
    3798:	ea f7       	brpl	.-6      	; 0x3794 <u8g2_font_decode_glyph+0x500>
    379a:	84 2b       	or	r24, r20
    379c:	29 ef       	ldi	r18, 0xF9	; 249
    379e:	23 0f       	add	r18, r19
    37a0:	ab 81       	ldd	r26, Y+3	; 0x03
    37a2:	bc 81       	ldd	r27, Y+4	; 0x04
    37a4:	2c 93       	st	X, r18
    37a6:	80 fd       	sbrc	r24, 0
    37a8:	6a cf       	rjmp	.-300    	; 0x367e <u8g2_font_decode_glyph+0x3ea>
    37aa:	b9 85       	ldd	r27, Y+9	; 0x09
    37ac:	1b 17       	cp	r17, r27
    37ae:	0c f4       	brge	.+2      	; 0x37b2 <u8g2_font_decode_glyph+0x51e>
    37b0:	06 cf       	rjmp	.-500    	; 0x35be <u8g2_font_decode_glyph+0x32a>
    37b2:	29 80       	ldd	r2, Y+1	; 0x01
    37b4:	3a 80       	ldd	r3, Y+2	; 0x02
    37b6:	f1 01       	movw	r30, r2
    37b8:	80 81       	ld	r24, Z
    37ba:	d4 01       	movw	r26, r8
    37bc:	8c 93       	st	X, r24
    37be:	88 89       	ldd	r24, Y+16	; 0x10
    37c0:	61 96       	adiw	r28, 0x11	; 17
    37c2:	0f b6       	in	r0, 0x3f	; 63
    37c4:	f8 94       	cli
    37c6:	de bf       	out	0x3e, r29	; 62
    37c8:	0f be       	out	0x3f, r0	; 63
    37ca:	cd bf       	out	0x3d, r28	; 61
    37cc:	df 91       	pop	r29
    37ce:	cf 91       	pop	r28
    37d0:	1f 91       	pop	r17
    37d2:	0f 91       	pop	r16
    37d4:	ff 90       	pop	r15
    37d6:	ef 90       	pop	r14
    37d8:	df 90       	pop	r13
    37da:	cf 90       	pop	r12
    37dc:	bf 90       	pop	r11
    37de:	af 90       	pop	r10
    37e0:	9f 90       	pop	r9
    37e2:	8f 90       	pop	r8
    37e4:	7f 90       	pop	r7
    37e6:	6f 90       	pop	r6
    37e8:	5f 90       	pop	r5
    37ea:	4f 90       	pop	r4
    37ec:	3f 90       	pop	r3
    37ee:	2f 90       	pop	r2
    37f0:	08 95       	ret
    37f2:	7b 01       	movw	r14, r22
    37f4:	9b 01       	movw	r18, r22
    37f6:	64 2f       	mov	r22, r20
    37f8:	86 cd       	rjmp	.-1268   	; 0x3306 <u8g2_font_decode_glyph+0x72>
    37fa:	f5 01       	movw	r30, r10
    37fc:	00 81       	ld	r16, Z
    37fe:	20 2f       	mov	r18, r16
    3800:	41 2f       	mov	r20, r17
    3802:	67 2d       	mov	r22, r7
    3804:	0e 94 3d 19 	call	0x327a	; 0x327a <u8g2_add_vector_x>
    3808:	c8 2e       	mov	r12, r24
    380a:	20 2f       	mov	r18, r16
    380c:	41 2f       	mov	r20, r17
    380e:	67 2d       	mov	r22, r7
    3810:	8d 2d       	mov	r24, r13
    3812:	0e 94 30 19 	call	0x3260	; 0x3260 <u8g2_add_vector_y>
    3816:	a9 81       	ldd	r26, Y+1	; 0x01
    3818:	ba 81       	ldd	r27, Y+2	; 0x02
    381a:	9c 91       	ld	r25, X
    381c:	f4 01       	movw	r30, r8
    381e:	90 83       	st	Z, r25
    3820:	24 2d       	mov	r18, r4
    3822:	48 2f       	mov	r20, r24
    3824:	6c 2d       	mov	r22, r12
    3826:	c7 01       	movw	r24, r14
    3828:	0e 94 31 1e 	call	0x3c62	; 0x3c62 <u8g2_DrawHVLine>
    382c:	64 18       	sub	r6, r4
    382e:	1f 5f       	subi	r17, 0xFF	; 255
    3830:	71 2c       	mov	r7, r1
    3832:	d7 01       	movw	r26, r14
    3834:	df 96       	adiw	r26, 0x3f	; 63
    3836:	4c 90       	ld	r4, X
    3838:	df 97       	sbiw	r26, 0x3f	; 63
    383a:	db 96       	adiw	r26, 0x3b	; 59
    383c:	8c 91       	ld	r24, X
    383e:	db 97       	sbiw	r26, 0x3b	; 59
    3840:	dc 96       	adiw	r26, 0x3c	; 60
    3842:	dc 90       	ld	r13, X
    3844:	62 cf       	rjmp	.-316    	; 0x370a <u8g2_font_decode_glyph+0x476>
    3846:	91 e0       	ldi	r25, 0x01	; 1
    3848:	39 2f       	mov	r19, r25
    384a:	3c 19       	sub	r19, r12
    384c:	21 e0       	ldi	r18, 0x01	; 1
    384e:	2d 0d       	add	r18, r13
    3850:	49 85       	ldd	r20, Y+9	; 0x09
    3852:	94 1b       	sub	r25, r20
    3854:	01 e0       	ldi	r16, 0x01	; 1
    3856:	08 0f       	add	r16, r24
    3858:	89 0f       	add	r24, r25
    385a:	d3 0e       	add	r13, r19
    385c:	86 ce       	rjmp	.-756    	; 0x356a <u8g2_font_decode_glyph+0x2d6>
    385e:	f9 85       	ldd	r31, Y+9	; 0x09
    3860:	1f 1b       	sub	r17, r31
    3862:	21 e0       	ldi	r18, 0x01	; 1
    3864:	2d 0d       	add	r18, r13
    3866:	0c 2d       	mov	r16, r12
    3868:	08 0f       	add	r16, r24
    386a:	d1 0e       	add	r13, r17
    386c:	7e ce       	rjmp	.-772    	; 0x356a <u8g2_font_decode_glyph+0x2d6>
    386e:	2c 2d       	mov	r18, r12
    3870:	2d 0d       	add	r18, r13
    3872:	09 85       	ldd	r16, Y+9	; 0x09
    3874:	08 0f       	add	r16, r24
    3876:	79 ce       	rjmp	.-782    	; 0x356a <u8g2_font_decode_glyph+0x2d6>
    3878:	08 2f       	mov	r16, r24
    387a:	2d 2d       	mov	r18, r13
    387c:	76 ce       	rjmp	.-788    	; 0x356a <u8g2_font_decode_glyph+0x2d6>

0000387e <u8g2_font_get_glyph_data>:
    387e:	ef 92       	push	r14
    3880:	ff 92       	push	r15
    3882:	0f 93       	push	r16
    3884:	1f 93       	push	r17
    3886:	cf 93       	push	r28
    3888:	df 93       	push	r29
    388a:	fc 01       	movw	r30, r24
    388c:	c5 a9       	ldd	r28, Z+53	; 0x35
    388e:	d6 a9       	ldd	r29, Z+54	; 0x36
    3890:	67 96       	adiw	r28, 0x17	; 23
    3892:	6f 3f       	cpi	r22, 0xFF	; 255
    3894:	71 05       	cpc	r23, r1
    3896:	09 f0       	breq	.+2      	; 0x389a <u8g2_font_get_glyph_data+0x1c>
    3898:	58 f4       	brcc	.+22     	; 0x38b0 <u8g2_font_get_glyph_data+0x32>
    389a:	61 36       	cpi	r22, 0x61	; 97
    389c:	71 05       	cpc	r23, r1
    389e:	08 f4       	brcc	.+2      	; 0x38a2 <u8g2_font_get_glyph_data+0x24>
    38a0:	3b c0       	rjmp	.+118    	; 0x3918 <u8g2_font_get_glyph_data+0x9a>
    38a2:	e7 5a       	subi	r30, 0xA7	; 167
    38a4:	ff 4f       	sbci	r31, 0xFF	; 255
    38a6:	80 81       	ld	r24, Z
    38a8:	91 81       	ldd	r25, Z+1	; 0x01
    38aa:	c8 0f       	add	r28, r24
    38ac:	d9 1f       	adc	r29, r25
    38ae:	49 c0       	rjmp	.+146    	; 0x3942 <u8g2_font_get_glyph_data+0xc4>
    38b0:	8b 01       	movw	r16, r22
    38b2:	fc 01       	movw	r30, r24
    38b4:	e5 5a       	subi	r30, 0xA5	; 165
    38b6:	ff 4f       	sbci	r31, 0xFF	; 255
    38b8:	80 81       	ld	r24, Z
    38ba:	91 81       	ldd	r25, Z+1	; 0x01
    38bc:	c8 0f       	add	r28, r24
    38be:	d9 1f       	adc	r29, r25
    38c0:	7e 01       	movw	r14, r28
    38c2:	c7 01       	movw	r24, r14
    38c4:	0e 94 19 19 	call	0x3232	; 0x3232 <u8g2_font_get_word.constprop.2>
    38c8:	c8 0f       	add	r28, r24
    38ca:	d9 1f       	adc	r29, r25
    38cc:	c7 01       	movw	r24, r14
    38ce:	0e 94 23 19 	call	0x3246	; 0x3246 <u8g2_font_get_word.constprop.3>
    38d2:	f4 e0       	ldi	r31, 0x04	; 4
    38d4:	ef 0e       	add	r14, r31
    38d6:	f1 1c       	adc	r15, r1
    38d8:	80 17       	cp	r24, r16
    38da:	91 07       	cpc	r25, r17
    38dc:	90 f3       	brcs	.-28     	; 0x38c2 <u8g2_font_get_glyph_data+0x44>
    38de:	09 c0       	rjmp	.+18     	; 0x38f2 <u8g2_font_get_glyph_data+0x74>
    38e0:	08 17       	cp	r16, r24
    38e2:	19 07       	cpc	r17, r25
    38e4:	09 f4       	brne	.+2      	; 0x38e8 <u8g2_font_get_glyph_data+0x6a>
    38e6:	34 c0       	rjmp	.+104    	; 0x3950 <u8g2_font_get_glyph_data+0xd2>
    38e8:	fe 01       	movw	r30, r28
    38ea:	32 96       	adiw	r30, 0x02	; 2
    38ec:	e4 91       	lpm	r30, Z
    38ee:	ce 0f       	add	r28, r30
    38f0:	d1 1d       	adc	r29, r1
    38f2:	fe 01       	movw	r30, r28
    38f4:	84 91       	lpm	r24, Z
    38f6:	90 e0       	ldi	r25, 0x00	; 0
    38f8:	98 2f       	mov	r25, r24
    38fa:	88 27       	eor	r24, r24
    38fc:	31 96       	adiw	r30, 0x01	; 1
    38fe:	e4 91       	lpm	r30, Z
    3900:	8e 2b       	or	r24, r30
    3902:	00 97       	sbiw	r24, 0x00	; 0
    3904:	69 f7       	brne	.-38     	; 0x38e0 <u8g2_font_get_glyph_data+0x62>
    3906:	80 e0       	ldi	r24, 0x00	; 0
    3908:	90 e0       	ldi	r25, 0x00	; 0
    390a:	df 91       	pop	r29
    390c:	cf 91       	pop	r28
    390e:	1f 91       	pop	r17
    3910:	0f 91       	pop	r16
    3912:	ff 90       	pop	r15
    3914:	ef 90       	pop	r14
    3916:	08 95       	ret
    3918:	61 34       	cpi	r22, 0x41	; 65
    391a:	71 05       	cpc	r23, r1
    391c:	90 f0       	brcs	.+36     	; 0x3942 <u8g2_font_get_glyph_data+0xc4>
    391e:	fc 01       	movw	r30, r24
    3920:	e9 5a       	subi	r30, 0xA9	; 169
    3922:	ff 4f       	sbci	r31, 0xFF	; 255
    3924:	80 81       	ld	r24, Z
    3926:	91 81       	ldd	r25, Z+1	; 0x01
    3928:	c8 0f       	add	r28, r24
    392a:	d9 1f       	adc	r29, r25
    392c:	0a c0       	rjmp	.+20     	; 0x3942 <u8g2_font_get_glyph_data+0xc4>
    392e:	fe 01       	movw	r30, r28
    3930:	24 91       	lpm	r18, Z
    3932:	30 e0       	ldi	r19, 0x00	; 0
    3934:	62 17       	cp	r22, r18
    3936:	73 07       	cpc	r23, r19
    3938:	a1 f0       	breq	.+40     	; 0x3962 <u8g2_font_get_glyph_data+0xe4>
    393a:	fc 01       	movw	r30, r24
    393c:	84 91       	lpm	r24, Z
    393e:	c8 0f       	add	r28, r24
    3940:	d1 1d       	adc	r29, r1
    3942:	ce 01       	movw	r24, r28
    3944:	01 96       	adiw	r24, 0x01	; 1
    3946:	fc 01       	movw	r30, r24
    3948:	24 91       	lpm	r18, Z
    394a:	21 11       	cpse	r18, r1
    394c:	f0 cf       	rjmp	.-32     	; 0x392e <u8g2_font_get_glyph_data+0xb0>
    394e:	db cf       	rjmp	.-74     	; 0x3906 <u8g2_font_get_glyph_data+0x88>
    3950:	ce 01       	movw	r24, r28
    3952:	03 96       	adiw	r24, 0x03	; 3
    3954:	df 91       	pop	r29
    3956:	cf 91       	pop	r28
    3958:	1f 91       	pop	r17
    395a:	0f 91       	pop	r16
    395c:	ff 90       	pop	r15
    395e:	ef 90       	pop	r14
    3960:	08 95       	ret
    3962:	ce 01       	movw	r24, r28
    3964:	02 96       	adiw	r24, 0x02	; 2
    3966:	df 91       	pop	r29
    3968:	cf 91       	pop	r28
    396a:	1f 91       	pop	r17
    396c:	0f 91       	pop	r16
    396e:	ff 90       	pop	r15
    3970:	ef 90       	pop	r14
    3972:	08 95       	ret

00003974 <u8g2_draw_string>:
    3974:	9f 92       	push	r9
    3976:	af 92       	push	r10
    3978:	bf 92       	push	r11
    397a:	cf 92       	push	r12
    397c:	df 92       	push	r13
    397e:	ef 92       	push	r14
    3980:	ff 92       	push	r15
    3982:	0f 93       	push	r16
    3984:	1f 93       	push	r17
    3986:	cf 93       	push	r28
    3988:	df 93       	push	r29
    398a:	ec 01       	movw	r28, r24
    398c:	96 2e       	mov	r9, r22
    398e:	a4 2e       	mov	r10, r20
    3990:	89 01       	movw	r16, r18
    3992:	0e 94 a0 20 	call	0x4140	; 0x4140 <u8x8_utf8_init>
    3996:	78 01       	movw	r14, r16
    3998:	b1 2c       	mov	r11, r1
    399a:	6e 01       	movw	r12, r28
    399c:	85 e4       	ldi	r24, 0x45	; 69
    399e:	c8 0e       	add	r12, r24
    39a0:	d1 1c       	adc	r13, r1
    39a2:	f7 01       	movw	r30, r14
    39a4:	61 91       	ld	r22, Z+
    39a6:	7f 01       	movw	r14, r30
    39a8:	ea 81       	ldd	r30, Y+2	; 0x02
    39aa:	fb 81       	ldd	r31, Y+3	; 0x03
    39ac:	ce 01       	movw	r24, r28
    39ae:	09 95       	icall
    39b0:	8c 01       	movw	r16, r24
    39b2:	01 96       	adiw	r24, 0x01	; 1
    39b4:	09 f4       	brne	.+2      	; 0x39b8 <u8g2_draw_string+0x44>
    39b6:	57 c0       	rjmp	.+174    	; 0x3a66 <u8g2_draw_string+0xf2>
    39b8:	0e 3f       	cpi	r16, 0xFE	; 254
    39ba:	8f ef       	ldi	r24, 0xFF	; 255
    39bc:	18 07       	cpc	r17, r24
    39be:	89 f3       	breq	.-30     	; 0x39a2 <u8g2_draw_string+0x2e>
    39c0:	f6 01       	movw	r30, r12
    39c2:	80 81       	ld	r24, Z
    39c4:	81 30       	cpi	r24, 0x01	; 1
    39c6:	09 f4       	brne	.+2      	; 0x39ca <u8g2_draw_string+0x56>
    39c8:	46 c0       	rjmp	.+140    	; 0x3a56 <u8g2_draw_string+0xe2>
    39ca:	f0 f1       	brcs	.+124    	; 0x3a48 <u8g2_draw_string+0xd4>
    39cc:	82 30       	cpi	r24, 0x02	; 2
    39ce:	99 f1       	breq	.+102    	; 0x3a36 <u8g2_draw_string+0xc2>
    39d0:	83 30       	cpi	r24, 0x03	; 3
    39d2:	59 f5       	brne	.+86     	; 0x3a2a <u8g2_draw_string+0xb6>
    39d4:	ef a9       	ldd	r30, Y+55	; 0x37
    39d6:	f8 ad       	ldd	r31, Y+56	; 0x38
    39d8:	ce 01       	movw	r24, r28
    39da:	09 95       	icall
    39dc:	99 2d       	mov	r25, r9
    39de:	98 0f       	add	r25, r24
    39e0:	8a 2d       	mov	r24, r10
    39e2:	9b af       	std	Y+59, r25	; 0x3b
    39e4:	8c af       	std	Y+60, r24	; 0x3c
    39e6:	b8 01       	movw	r22, r16
    39e8:	ce 01       	movw	r24, r28
    39ea:	0e 94 3f 1c 	call	0x387e	; 0x387e <u8g2_font_get_glyph_data>
    39ee:	00 97       	sbiw	r24, 0x00	; 0
    39f0:	89 f0       	breq	.+34     	; 0x3a14 <u8g2_draw_string+0xa0>
    39f2:	bc 01       	movw	r22, r24
    39f4:	ce 01       	movw	r24, r28
    39f6:	0e 94 4a 19 	call	0x3294	; 0x3294 <u8g2_font_decode_glyph>
    39fa:	f6 01       	movw	r30, r12
    39fc:	90 81       	ld	r25, Z
    39fe:	91 30       	cpi	r25, 0x01	; 1
    3a00:	71 f0       	breq	.+28     	; 0x3a1e <u8g2_draw_string+0xaa>
    3a02:	91 30       	cpi	r25, 0x01	; 1
    3a04:	a8 f0       	brcs	.+42     	; 0x3a30 <u8g2_draw_string+0xbc>
    3a06:	92 30       	cpi	r25, 0x02	; 2
    3a08:	69 f0       	breq	.+26     	; 0x3a24 <u8g2_draw_string+0xb0>
    3a0a:	93 30       	cpi	r25, 0x03	; 3
    3a0c:	09 f4       	brne	.+2      	; 0x3a10 <u8g2_draw_string+0x9c>
    3a0e:	a8 1a       	sub	r10, r24
    3a10:	b8 0e       	add	r11, r24
    3a12:	c7 cf       	rjmp	.-114    	; 0x39a2 <u8g2_draw_string+0x2e>
    3a14:	80 e0       	ldi	r24, 0x00	; 0
    3a16:	f6 01       	movw	r30, r12
    3a18:	90 81       	ld	r25, Z
    3a1a:	91 30       	cpi	r25, 0x01	; 1
    3a1c:	91 f7       	brne	.-28     	; 0x3a02 <u8g2_draw_string+0x8e>
    3a1e:	a8 0e       	add	r10, r24
    3a20:	b8 0e       	add	r11, r24
    3a22:	bf cf       	rjmp	.-130    	; 0x39a2 <u8g2_draw_string+0x2e>
    3a24:	98 1a       	sub	r9, r24
    3a26:	b8 0e       	add	r11, r24
    3a28:	bc cf       	rjmp	.-136    	; 0x39a2 <u8g2_draw_string+0x2e>
    3a2a:	8a 2d       	mov	r24, r10
    3a2c:	99 2d       	mov	r25, r9
    3a2e:	d9 cf       	rjmp	.-78     	; 0x39e2 <u8g2_draw_string+0x6e>
    3a30:	98 0e       	add	r9, r24
    3a32:	b8 0e       	add	r11, r24
    3a34:	b6 cf       	rjmp	.-148    	; 0x39a2 <u8g2_draw_string+0x2e>
    3a36:	ef a9       	ldd	r30, Y+55	; 0x37
    3a38:	f8 ad       	ldd	r31, Y+56	; 0x38
    3a3a:	ce 01       	movw	r24, r28
    3a3c:	09 95       	icall
    3a3e:	fa 2d       	mov	r31, r10
    3a40:	f8 1b       	sub	r31, r24
    3a42:	8f 2f       	mov	r24, r31
    3a44:	99 2d       	mov	r25, r9
    3a46:	cd cf       	rjmp	.-102    	; 0x39e2 <u8g2_draw_string+0x6e>
    3a48:	ef a9       	ldd	r30, Y+55	; 0x37
    3a4a:	f8 ad       	ldd	r31, Y+56	; 0x38
    3a4c:	ce 01       	movw	r24, r28
    3a4e:	09 95       	icall
    3a50:	8a 0d       	add	r24, r10
    3a52:	99 2d       	mov	r25, r9
    3a54:	c6 cf       	rjmp	.-116    	; 0x39e2 <u8g2_draw_string+0x6e>
    3a56:	ef a9       	ldd	r30, Y+55	; 0x37
    3a58:	f8 ad       	ldd	r31, Y+56	; 0x38
    3a5a:	ce 01       	movw	r24, r28
    3a5c:	09 95       	icall
    3a5e:	99 2d       	mov	r25, r9
    3a60:	98 1b       	sub	r25, r24
    3a62:	8a 2d       	mov	r24, r10
    3a64:	be cf       	rjmp	.-132    	; 0x39e2 <u8g2_draw_string+0x6e>
    3a66:	8b 2d       	mov	r24, r11
    3a68:	df 91       	pop	r29
    3a6a:	cf 91       	pop	r28
    3a6c:	1f 91       	pop	r17
    3a6e:	0f 91       	pop	r16
    3a70:	ff 90       	pop	r15
    3a72:	ef 90       	pop	r14
    3a74:	df 90       	pop	r13
    3a76:	cf 90       	pop	r12
    3a78:	bf 90       	pop	r11
    3a7a:	af 90       	pop	r10
    3a7c:	9f 90       	pop	r9
    3a7e:	08 95       	ret

00003a80 <u8g2_DrawStr>:
    3a80:	e6 e9       	ldi	r30, 0x96	; 150
    3a82:	f0 e2       	ldi	r31, 0x20	; 32
    3a84:	dc 01       	movw	r26, r24
    3a86:	13 96       	adiw	r26, 0x03	; 3
    3a88:	fc 93       	st	X, r31
    3a8a:	ee 93       	st	-X, r30
    3a8c:	12 97       	sbiw	r26, 0x02	; 2
    3a8e:	0c 94 ba 1c 	jmp	0x3974	; 0x3974 <u8g2_draw_string>

00003a92 <u8g2_SetFontPosBaseline>:
    3a92:	27 e1       	ldi	r18, 0x17	; 23
    3a94:	39 e1       	ldi	r19, 0x19	; 25
    3a96:	fc 01       	movw	r30, r24
    3a98:	30 af       	std	Z+56, r19	; 0x38
    3a9a:	27 ab       	std	Z+55, r18	; 0x37
    3a9c:	08 95       	ret

00003a9e <u8g2_SetFont>:
    3a9e:	ef 92       	push	r14
    3aa0:	ff 92       	push	r15
    3aa2:	0f 93       	push	r16
    3aa4:	1f 93       	push	r17
    3aa6:	cf 93       	push	r28
    3aa8:	df 93       	push	r29
    3aaa:	dc 01       	movw	r26, r24
    3aac:	d5 96       	adiw	r26, 0x35	; 53
    3aae:	2d 91       	ld	r18, X+
    3ab0:	3c 91       	ld	r19, X
    3ab2:	d6 97       	sbiw	r26, 0x36	; 54
    3ab4:	26 17       	cp	r18, r22
    3ab6:	37 07       	cpc	r19, r23
    3ab8:	09 f4       	brne	.+2      	; 0x3abc <u8g2_SetFont+0x1e>
    3aba:	b2 c0       	rjmp	.+356    	; 0x3c20 <u8g2_SetFont+0x182>
    3abc:	eb 01       	movw	r28, r22
    3abe:	7c 01       	movw	r14, r24
    3ac0:	fc 01       	movw	r30, r24
    3ac2:	76 ab       	std	Z+54, r23	; 0x36
    3ac4:	65 ab       	std	Z+53, r22	; 0x35
    3ac6:	fb 01       	movw	r30, r22
    3ac8:	84 91       	lpm	r24, Z
    3aca:	8d 01       	movw	r16, r26
    3acc:	0a 5b       	subi	r16, 0xBA	; 186
    3ace:	1f 4f       	sbci	r17, 0xFF	; 255
    3ad0:	d8 01       	movw	r26, r16
    3ad2:	8c 93       	st	X, r24
    3ad4:	31 96       	adiw	r30, 0x01	; 1
    3ad6:	e4 91       	lpm	r30, Z
    3ad8:	11 96       	adiw	r26, 0x01	; 1
    3ada:	ec 93       	st	X, r30
    3adc:	11 97       	sbiw	r26, 0x01	; 1
    3ade:	fb 01       	movw	r30, r22
    3ae0:	32 96       	adiw	r30, 0x02	; 2
    3ae2:	e4 91       	lpm	r30, Z
    3ae4:	12 96       	adiw	r26, 0x02	; 2
    3ae6:	ec 93       	st	X, r30
    3ae8:	12 97       	sbiw	r26, 0x02	; 2
    3aea:	fb 01       	movw	r30, r22
    3aec:	33 96       	adiw	r30, 0x03	; 3
    3aee:	e4 91       	lpm	r30, Z
    3af0:	13 96       	adiw	r26, 0x03	; 3
    3af2:	ec 93       	st	X, r30
    3af4:	13 97       	sbiw	r26, 0x03	; 3
    3af6:	fb 01       	movw	r30, r22
    3af8:	34 96       	adiw	r30, 0x04	; 4
    3afa:	e4 91       	lpm	r30, Z
    3afc:	14 96       	adiw	r26, 0x04	; 4
    3afe:	ec 93       	st	X, r30
    3b00:	14 97       	sbiw	r26, 0x04	; 4
    3b02:	fb 01       	movw	r30, r22
    3b04:	35 96       	adiw	r30, 0x05	; 5
    3b06:	e4 91       	lpm	r30, Z
    3b08:	15 96       	adiw	r26, 0x05	; 5
    3b0a:	ec 93       	st	X, r30
    3b0c:	15 97       	sbiw	r26, 0x05	; 5
    3b0e:	fb 01       	movw	r30, r22
    3b10:	36 96       	adiw	r30, 0x06	; 6
    3b12:	e4 91       	lpm	r30, Z
    3b14:	16 96       	adiw	r26, 0x06	; 6
    3b16:	ec 93       	st	X, r30
    3b18:	16 97       	sbiw	r26, 0x06	; 6
    3b1a:	fb 01       	movw	r30, r22
    3b1c:	37 96       	adiw	r30, 0x07	; 7
    3b1e:	e4 91       	lpm	r30, Z
    3b20:	17 96       	adiw	r26, 0x07	; 7
    3b22:	ec 93       	st	X, r30
    3b24:	17 97       	sbiw	r26, 0x07	; 7
    3b26:	fb 01       	movw	r30, r22
    3b28:	38 96       	adiw	r30, 0x08	; 8
    3b2a:	e4 91       	lpm	r30, Z
    3b2c:	18 96       	adiw	r26, 0x08	; 8
    3b2e:	ec 93       	st	X, r30
    3b30:	18 97       	sbiw	r26, 0x08	; 8
    3b32:	fb 01       	movw	r30, r22
    3b34:	39 96       	adiw	r30, 0x09	; 9
    3b36:	e4 91       	lpm	r30, Z
    3b38:	19 96       	adiw	r26, 0x09	; 9
    3b3a:	ec 93       	st	X, r30
    3b3c:	19 97       	sbiw	r26, 0x09	; 9
    3b3e:	fb 01       	movw	r30, r22
    3b40:	3a 96       	adiw	r30, 0x0a	; 10
    3b42:	e4 91       	lpm	r30, Z
    3b44:	1a 96       	adiw	r26, 0x0a	; 10
    3b46:	ec 93       	st	X, r30
    3b48:	1a 97       	sbiw	r26, 0x0a	; 10
    3b4a:	fb 01       	movw	r30, r22
    3b4c:	3b 96       	adiw	r30, 0x0b	; 11
    3b4e:	e4 91       	lpm	r30, Z
    3b50:	1b 96       	adiw	r26, 0x0b	; 11
    3b52:	ec 93       	st	X, r30
    3b54:	1b 97       	sbiw	r26, 0x0b	; 11
    3b56:	fb 01       	movw	r30, r22
    3b58:	3c 96       	adiw	r30, 0x0c	; 12
    3b5a:	e4 91       	lpm	r30, Z
    3b5c:	1c 96       	adiw	r26, 0x0c	; 12
    3b5e:	ec 93       	st	X, r30
    3b60:	1c 97       	sbiw	r26, 0x0c	; 12
    3b62:	fb 01       	movw	r30, r22
    3b64:	3d 96       	adiw	r30, 0x0d	; 13
    3b66:	e4 91       	lpm	r30, Z
    3b68:	1d 96       	adiw	r26, 0x0d	; 13
    3b6a:	ec 93       	st	X, r30
    3b6c:	1d 97       	sbiw	r26, 0x0d	; 13
    3b6e:	fb 01       	movw	r30, r22
    3b70:	3e 96       	adiw	r30, 0x0e	; 14
    3b72:	e4 91       	lpm	r30, Z
    3b74:	1e 96       	adiw	r26, 0x0e	; 14
    3b76:	ec 93       	st	X, r30
    3b78:	1e 97       	sbiw	r26, 0x0e	; 14
    3b7a:	fb 01       	movw	r30, r22
    3b7c:	3f 96       	adiw	r30, 0x0f	; 15
    3b7e:	e4 91       	lpm	r30, Z
    3b80:	1f 96       	adiw	r26, 0x0f	; 15
    3b82:	ec 93       	st	X, r30
    3b84:	1f 97       	sbiw	r26, 0x0f	; 15
    3b86:	fb 01       	movw	r30, r22
    3b88:	70 96       	adiw	r30, 0x10	; 16
    3b8a:	e4 91       	lpm	r30, Z
    3b8c:	50 96       	adiw	r26, 0x10	; 16
    3b8e:	ec 93       	st	X, r30
    3b90:	61 e1       	ldi	r22, 0x11	; 17
    3b92:	ce 01       	movw	r24, r28
    3b94:	0e 94 0b 19 	call	0x3216	; 0x3216 <u8g2_font_get_word>
    3b98:	f8 01       	movw	r30, r16
    3b9a:	92 8b       	std	Z+18, r25	; 0x12
    3b9c:	81 8b       	std	Z+17, r24	; 0x11
    3b9e:	63 e1       	ldi	r22, 0x13	; 19
    3ba0:	ce 01       	movw	r24, r28
    3ba2:	0e 94 0b 19 	call	0x3216	; 0x3216 <u8g2_font_get_word>
    3ba6:	d8 01       	movw	r26, r16
    3ba8:	54 96       	adiw	r26, 0x14	; 20
    3baa:	9c 93       	st	X, r25
    3bac:	8e 93       	st	-X, r24
    3bae:	53 97       	sbiw	r26, 0x13	; 19
    3bb0:	65 e1       	ldi	r22, 0x15	; 21
    3bb2:	ce 01       	movw	r24, r28
    3bb4:	0e 94 0b 19 	call	0x3216	; 0x3216 <u8g2_font_get_word>
    3bb8:	f8 01       	movw	r30, r16
    3bba:	96 8b       	std	Z+22, r25	; 0x16
    3bbc:	85 8b       	std	Z+21, r24	; 0x15
    3bbe:	d7 01       	movw	r26, r14
    3bc0:	d5 96       	adiw	r26, 0x35	; 53
    3bc2:	8d 91       	ld	r24, X+
    3bc4:	9c 91       	ld	r25, X
    3bc6:	d6 97       	sbiw	r26, 0x36	; 54
    3bc8:	89 2b       	or	r24, r25
    3bca:	51 f1       	breq	.+84     	; 0x3c20 <u8g2_SetFont+0x182>
    3bcc:	3d 96       	adiw	r30, 0x0d	; 13
    3bce:	80 81       	ld	r24, Z
    3bd0:	e7 01       	movw	r28, r14
    3bd2:	c1 5a       	subi	r28, 0xA1	; 161
    3bd4:	df 4f       	sbci	r29, 0xFF	; 255
    3bd6:	88 83       	st	Y, r24
    3bd8:	31 96       	adiw	r30, 0x01	; 1
    3bda:	20 81       	ld	r18, Z
    3bdc:	a0 5a       	subi	r26, 0xA0	; 160
    3bde:	bf 4f       	sbci	r27, 0xFF	; 255
    3be0:	2c 93       	st	X, r18
    3be2:	3a 96       	adiw	r30, 0x0a	; 10
    3be4:	90 81       	ld	r25, Z
    3be6:	99 23       	and	r25, r25
    3be8:	d9 f0       	breq	.+54     	; 0x3c20 <u8g2_SetFont+0x182>
    3bea:	91 30       	cpi	r25, 0x01	; 1
    3bec:	01 f1       	breq	.+64     	; 0x3c2e <u8g2_SetFont+0x190>
    3bee:	f7 01       	movw	r30, r14
    3bf0:	e0 5b       	subi	r30, 0xB0	; 176
    3bf2:	ff 4f       	sbci	r31, 0xFF	; 255
    3bf4:	60 81       	ld	r22, Z
    3bf6:	32 96       	adiw	r30, 0x02	; 2
    3bf8:	30 81       	ld	r19, Z
    3bfa:	08 2e       	mov	r0, r24
    3bfc:	00 0c       	add	r0, r0
    3bfe:	99 0b       	sbc	r25, r25
    3c00:	43 2f       	mov	r20, r19
    3c02:	03 2e       	mov	r0, r19
    3c04:	00 0c       	add	r0, r0
    3c06:	55 0b       	sbc	r21, r21
    3c08:	46 0f       	add	r20, r22
    3c0a:	51 1d       	adc	r21, r1
    3c0c:	67 fd       	sbrc	r22, 7
    3c0e:	5a 95       	dec	r21
    3c10:	84 17       	cp	r24, r20
    3c12:	95 07       	cpc	r25, r21
    3c14:	14 f4       	brge	.+4      	; 0x3c1a <u8g2_SetFont+0x17c>
    3c16:	63 0f       	add	r22, r19
    3c18:	68 83       	st	Y, r22
    3c1a:	32 17       	cp	r19, r18
    3c1c:	0c f4       	brge	.+2      	; 0x3c20 <u8g2_SetFont+0x182>
    3c1e:	3c 93       	st	X, r19
    3c20:	df 91       	pop	r29
    3c22:	cf 91       	pop	r28
    3c24:	1f 91       	pop	r17
    3c26:	0f 91       	pop	r16
    3c28:	ff 90       	pop	r15
    3c2a:	ef 90       	pop	r14
    3c2c:	08 95       	ret
    3c2e:	39 97       	sbiw	r30, 0x09	; 9
    3c30:	90 81       	ld	r25, Z
    3c32:	89 17       	cp	r24, r25
    3c34:	0c f4       	brge	.+2      	; 0x3c38 <u8g2_SetFont+0x19a>
    3c36:	98 83       	st	Y, r25
    3c38:	f7 01       	movw	r30, r14
    3c3a:	ea 5a       	subi	r30, 0xAA	; 170
    3c3c:	ff 4f       	sbci	r31, 0xFF	; 255
    3c3e:	80 81       	ld	r24, Z
    3c40:	82 17       	cp	r24, r18
    3c42:	74 f7       	brge	.-36     	; 0x3c20 <u8g2_SetFont+0x182>
    3c44:	8c 93       	st	X, r24
    3c46:	ec cf       	rjmp	.-40     	; 0x3c20 <u8g2_SetFont+0x182>

00003c48 <u8g2_draw_hv_line_2dir>:
    3c48:	0f 93       	push	r16
    3c4a:	dc 01       	movw	r26, r24
    3c4c:	98 96       	adiw	r26, 0x28	; 40
    3c4e:	3c 91       	ld	r19, X
    3c50:	98 97       	sbiw	r26, 0x28	; 40
    3c52:	43 1b       	sub	r20, r19
    3c54:	5e 96       	adiw	r26, 0x1e	; 30
    3c56:	ed 91       	ld	r30, X+
    3c58:	fc 91       	ld	r31, X
    3c5a:	5f 97       	sbiw	r26, 0x1f	; 31
    3c5c:	09 95       	icall
    3c5e:	0f 91       	pop	r16
    3c60:	08 95       	ret

00003c62 <u8g2_DrawHVLine>:
    3c62:	0f 93       	push	r16
    3c64:	fc 01       	movw	r30, r24
    3c66:	e3 5a       	subi	r30, 0xA3	; 163
    3c68:	ff 4f       	sbci	r31, 0xFF	; 255
    3c6a:	30 81       	ld	r19, Z
    3c6c:	33 23       	and	r19, r19
    3c6e:	09 f4       	brne	.+2      	; 0x3c72 <u8g2_DrawHVLine+0x10>
    3c70:	5a c0       	rjmp	.+180    	; 0x3d26 <u8g2_DrawHVLine+0xc4>
    3c72:	22 23       	and	r18, r18
    3c74:	09 f4       	brne	.+2      	; 0x3c78 <u8g2_DrawHVLine+0x16>
    3c76:	57 c0       	rjmp	.+174    	; 0x3d26 <u8g2_DrawHVLine+0xc4>
    3c78:	22 30       	cpi	r18, 0x02	; 2
    3c7a:	08 f4       	brcc	.+2      	; 0x3c7e <u8g2_DrawHVLine+0x1c>
    3c7c:	56 c0       	rjmp	.+172    	; 0x3d2a <u8g2_DrawHVLine+0xc8>
    3c7e:	02 30       	cpi	r16, 0x02	; 2
    3c80:	29 f1       	breq	.+74     	; 0x3ccc <u8g2_DrawHVLine+0x6a>
    3c82:	03 30       	cpi	r16, 0x03	; 3
    3c84:	09 f0       	breq	.+2      	; 0x3c88 <u8g2_DrawHVLine+0x26>
    3c86:	51 c0       	rjmp	.+162    	; 0x3d2a <u8g2_DrawHVLine+0xc8>
    3c88:	4f 5f       	subi	r20, 0xFF	; 255
    3c8a:	42 1b       	sub	r20, r18
    3c8c:	fc 01       	movw	r30, r24
    3c8e:	35 a5       	ldd	r19, Z+45	; 0x2d
    3c90:	63 17       	cp	r22, r19
    3c92:	08 f4       	brcc	.+2      	; 0x3c96 <u8g2_DrawHVLine+0x34>
    3c94:	48 c0       	rjmp	.+144    	; 0x3d26 <u8g2_DrawHVLine+0xc4>
    3c96:	36 a5       	ldd	r19, Z+46	; 0x2e
    3c98:	63 17       	cp	r22, r19
    3c9a:	08 f0       	brcs	.+2      	; 0x3c9e <u8g2_DrawHVLine+0x3c>
    3c9c:	44 c0       	rjmp	.+136    	; 0x3d26 <u8g2_DrawHVLine+0xc4>
    3c9e:	30 a9       	ldd	r19, Z+48	; 0x30
    3ca0:	57 a5       	ldd	r21, Z+47	; 0x2f
    3ca2:	24 0f       	add	r18, r20
    3ca4:	24 17       	cp	r18, r20
    3ca6:	08 f0       	brcs	.+2      	; 0x3caa <u8g2_DrawHVLine+0x48>
    3ca8:	44 c0       	rjmp	.+136    	; 0x3d32 <u8g2_DrawHVLine+0xd0>
    3caa:	43 17       	cp	r20, r19
    3cac:	08 f0       	brcs	.+2      	; 0x3cb0 <u8g2_DrawHVLine+0x4e>
    3cae:	40 c0       	rjmp	.+128    	; 0x3d30 <u8g2_DrawHVLine+0xce>
    3cb0:	2f ef       	ldi	r18, 0xFF	; 255
    3cb2:	23 0f       	add	r18, r19
    3cb4:	52 17       	cp	r21, r18
    3cb6:	b8 f5       	brcc	.+110    	; 0x3d26 <u8g2_DrawHVLine+0xc4>
    3cb8:	45 17       	cp	r20, r21
    3cba:	08 f4       	brcc	.+2      	; 0x3cbe <u8g2_DrawHVLine+0x5c>
    3cbc:	45 2f       	mov	r20, r21
    3cbe:	23 17       	cp	r18, r19
    3cc0:	08 f4       	brcc	.+2      	; 0x3cc4 <u8g2_DrawHVLine+0x62>
    3cc2:	32 2f       	mov	r19, r18
    3cc4:	23 2f       	mov	r18, r19
    3cc6:	24 1b       	sub	r18, r20
    3cc8:	01 e0       	ldi	r16, 0x01	; 1
    3cca:	24 c0       	rjmp	.+72     	; 0x3d14 <u8g2_DrawHVLine+0xb2>
    3ccc:	6f 5f       	subi	r22, 0xFF	; 255
    3cce:	62 1b       	sub	r22, r18
    3cd0:	dc 01       	movw	r26, r24
    3cd2:	9f 96       	adiw	r26, 0x2f	; 47
    3cd4:	3c 91       	ld	r19, X
    3cd6:	9f 97       	sbiw	r26, 0x2f	; 47
    3cd8:	43 17       	cp	r20, r19
    3cda:	28 f1       	brcs	.+74     	; 0x3d26 <u8g2_DrawHVLine+0xc4>
    3cdc:	d0 96       	adiw	r26, 0x30	; 48
    3cde:	3c 91       	ld	r19, X
    3ce0:	d0 97       	sbiw	r26, 0x30	; 48
    3ce2:	43 17       	cp	r20, r19
    3ce4:	00 f5       	brcc	.+64     	; 0x3d26 <u8g2_DrawHVLine+0xc4>
    3ce6:	9e 96       	adiw	r26, 0x2e	; 46
    3ce8:	3c 91       	ld	r19, X
    3cea:	9e 97       	sbiw	r26, 0x2e	; 46
    3cec:	9d 96       	adiw	r26, 0x2d	; 45
    3cee:	5c 91       	ld	r21, X
    3cf0:	26 0f       	add	r18, r22
    3cf2:	26 17       	cp	r18, r22
    3cf4:	10 f5       	brcc	.+68     	; 0x3d3a <u8g2_DrawHVLine+0xd8>
    3cf6:	63 17       	cp	r22, r19
    3cf8:	f8 f4       	brcc	.+62     	; 0x3d38 <u8g2_DrawHVLine+0xd6>
    3cfa:	2f ef       	ldi	r18, 0xFF	; 255
    3cfc:	23 0f       	add	r18, r19
    3cfe:	52 17       	cp	r21, r18
    3d00:	90 f4       	brcc	.+36     	; 0x3d26 <u8g2_DrawHVLine+0xc4>
    3d02:	65 17       	cp	r22, r21
    3d04:	08 f4       	brcc	.+2      	; 0x3d08 <u8g2_DrawHVLine+0xa6>
    3d06:	65 2f       	mov	r22, r21
    3d08:	23 17       	cp	r18, r19
    3d0a:	08 f4       	brcc	.+2      	; 0x3d0e <u8g2_DrawHVLine+0xac>
    3d0c:	32 2f       	mov	r19, r18
    3d0e:	23 2f       	mov	r18, r19
    3d10:	26 1b       	sub	r18, r22
    3d12:	00 e0       	ldi	r16, 0x00	; 0
    3d14:	dc 01       	movw	r26, r24
    3d16:	90 96       	adiw	r26, 0x20	; 32
    3d18:	ed 91       	ld	r30, X+
    3d1a:	fc 91       	ld	r31, X
    3d1c:	91 97       	sbiw	r26, 0x21	; 33
    3d1e:	04 80       	ldd	r0, Z+4	; 0x04
    3d20:	f5 81       	ldd	r31, Z+5	; 0x05
    3d22:	e0 2d       	mov	r30, r0
    3d24:	09 95       	icall
    3d26:	0f 91       	pop	r16
    3d28:	08 95       	ret
    3d2a:	00 fd       	sbrc	r16, 0
    3d2c:	af cf       	rjmp	.-162    	; 0x3c8c <u8g2_DrawHVLine+0x2a>
    3d2e:	d0 cf       	rjmp	.-96     	; 0x3cd0 <u8g2_DrawHVLine+0x6e>
    3d30:	45 2f       	mov	r20, r21
    3d32:	43 17       	cp	r20, r19
    3d34:	c0 f7       	brcc	.-16     	; 0x3d26 <u8g2_DrawHVLine+0xc4>
    3d36:	be cf       	rjmp	.-132    	; 0x3cb4 <u8g2_DrawHVLine+0x52>
    3d38:	65 2f       	mov	r22, r21
    3d3a:	63 17       	cp	r22, r19
    3d3c:	a0 f7       	brcc	.-24     	; 0x3d26 <u8g2_DrawHVLine+0xc4>
    3d3e:	df cf       	rjmp	.-66     	; 0x3cfe <u8g2_DrawHVLine+0x9c>

00003d40 <u8g2_DrawPixel>:
    3d40:	0f 93       	push	r16
    3d42:	fc 01       	movw	r30, r24
    3d44:	87 a5       	ldd	r24, Z+47	; 0x2f
    3d46:	48 17       	cp	r20, r24
    3d48:	38 f1       	brcs	.+78     	; 0x3d98 <u8g2_DrawPixel+0x58>
    3d4a:	80 a9       	ldd	r24, Z+48	; 0x30
    3d4c:	48 17       	cp	r20, r24
    3d4e:	20 f5       	brcc	.+72     	; 0x3d98 <u8g2_DrawPixel+0x58>
    3d50:	85 a5       	ldd	r24, Z+45	; 0x2d
    3d52:	68 17       	cp	r22, r24
    3d54:	08 f1       	brcs	.+66     	; 0x3d98 <u8g2_DrawPixel+0x58>
    3d56:	26 a5       	ldd	r18, Z+46	; 0x2e
    3d58:	62 17       	cp	r22, r18
    3d5a:	f0 f4       	brcc	.+60     	; 0x3d98 <u8g2_DrawPixel+0x58>
    3d5c:	df 01       	movw	r26, r30
    3d5e:	a3 5a       	subi	r26, 0xA3	; 163
    3d60:	bf 4f       	sbci	r27, 0xFF	; 255
    3d62:	9c 91       	ld	r25, X
    3d64:	99 23       	and	r25, r25
    3d66:	c1 f0       	breq	.+48     	; 0x3d98 <u8g2_DrawPixel+0x58>
    3d68:	91 e0       	ldi	r25, 0x01	; 1
    3d6a:	96 0f       	add	r25, r22
    3d6c:	96 17       	cp	r25, r22
    3d6e:	b0 f0       	brcs	.+44     	; 0x3d9c <u8g2_DrawPixel+0x5c>
    3d70:	89 17       	cp	r24, r25
    3d72:	90 f4       	brcc	.+36     	; 0x3d98 <u8g2_DrawPixel+0x58>
    3d74:	38 2f       	mov	r19, r24
    3d76:	86 17       	cp	r24, r22
    3d78:	08 f4       	brcc	.+2      	; 0x3d7c <u8g2_DrawPixel+0x3c>
    3d7a:	36 2f       	mov	r19, r22
    3d7c:	92 17       	cp	r25, r18
    3d7e:	08 f4       	brcc	.+2      	; 0x3d82 <u8g2_DrawPixel+0x42>
    3d80:	29 2f       	mov	r18, r25
    3d82:	cf 01       	movw	r24, r30
    3d84:	23 1b       	sub	r18, r19
    3d86:	00 a0       	ldd	r0, Z+32	; 0x20
    3d88:	f1 a1       	ldd	r31, Z+33	; 0x21
    3d8a:	e0 2d       	mov	r30, r0
    3d8c:	04 80       	ldd	r0, Z+4	; 0x04
    3d8e:	f5 81       	ldd	r31, Z+5	; 0x05
    3d90:	e0 2d       	mov	r30, r0
    3d92:	00 e0       	ldi	r16, 0x00	; 0
    3d94:	63 2f       	mov	r22, r19
    3d96:	09 95       	icall
    3d98:	0f 91       	pop	r16
    3d9a:	08 95       	ret
    3d9c:	9f ef       	ldi	r25, 0xFF	; 255
    3d9e:	92 0f       	add	r25, r18
    3da0:	e7 cf       	rjmp	.-50     	; 0x3d70 <u8g2_DrawPixel+0x30>

00003da2 <u8g2_IsIntersection>:
    3da2:	0f 93       	push	r16
    3da4:	fc 01       	movw	r30, r24
    3da6:	87 a5       	ldd	r24, Z+47	; 0x2f
    3da8:	90 a9       	ldd	r25, Z+48	; 0x30
    3daa:	49 17       	cp	r20, r25
    3dac:	58 f4       	brcc	.+22     	; 0x3dc4 <u8g2_IsIntersection+0x22>
    3dae:	80 17       	cp	r24, r16
    3db0:	58 f4       	brcc	.+22     	; 0x3dc8 <u8g2_IsIntersection+0x26>
    3db2:	85 a5       	ldd	r24, Z+45	; 0x2d
    3db4:	96 a5       	ldd	r25, Z+46	; 0x2e
    3db6:	69 17       	cp	r22, r25
    3db8:	60 f4       	brcc	.+24     	; 0x3dd2 <u8g2_IsIntersection+0x30>
    3dba:	82 17       	cp	r24, r18
    3dbc:	60 f4       	brcc	.+24     	; 0x3dd6 <u8g2_IsIntersection+0x34>
    3dbe:	81 e0       	ldi	r24, 0x01	; 1
    3dc0:	0f 91       	pop	r16
    3dc2:	08 95       	ret
    3dc4:	80 17       	cp	r24, r16
    3dc6:	10 f4       	brcc	.+4      	; 0x3dcc <u8g2_IsIntersection+0x2a>
    3dc8:	04 17       	cp	r16, r20
    3dca:	98 f3       	brcs	.-26     	; 0x3db2 <u8g2_IsIntersection+0x10>
    3dcc:	80 e0       	ldi	r24, 0x00	; 0
    3dce:	0f 91       	pop	r16
    3dd0:	08 95       	ret
    3dd2:	82 17       	cp	r24, r18
    3dd4:	d8 f7       	brcc	.-10     	; 0x3dcc <u8g2_IsIntersection+0x2a>
    3dd6:	81 e0       	ldi	r24, 0x01	; 1
    3dd8:	26 17       	cp	r18, r22
    3dda:	c0 f7       	brcc	.-16     	; 0x3dcc <u8g2_IsIntersection+0x2a>
    3ddc:	0f 91       	pop	r16
    3dde:	08 95       	ret

00003de0 <u8g2_DrawLine>:
    3de0:	bf 92       	push	r11
    3de2:	cf 92       	push	r12
    3de4:	df 92       	push	r13
    3de6:	ef 92       	push	r14
    3de8:	ff 92       	push	r15
    3dea:	0f 93       	push	r16
    3dec:	1f 93       	push	r17
    3dee:	cf 93       	push	r28
    3df0:	df 93       	push	r29
    3df2:	6c 01       	movw	r12, r24
    3df4:	c6 2f       	mov	r28, r22
    3df6:	14 2f       	mov	r17, r20
    3df8:	f2 2e       	mov	r15, r18
    3dfa:	26 17       	cp	r18, r22
    3dfc:	08 f0       	brcs	.+2      	; 0x3e00 <u8g2_DrawLine+0x20>
    3dfe:	4f c0       	rjmp	.+158    	; 0x3e9e <u8g2_DrawLine+0xbe>
    3e00:	e6 2e       	mov	r14, r22
    3e02:	e2 1a       	sub	r14, r18
    3e04:	01 17       	cp	r16, r17
    3e06:	08 f0       	brcs	.+2      	; 0x3e0a <u8g2_DrawLine+0x2a>
    3e08:	4f c0       	rjmp	.+158    	; 0x3ea8 <u8g2_DrawLine+0xc8>
    3e0a:	b1 2e       	mov	r11, r17
    3e0c:	b0 1a       	sub	r11, r16
    3e0e:	eb 14       	cp	r14, r11
    3e10:	08 f0       	brcs	.+2      	; 0x3e14 <u8g2_DrawLine+0x34>
    3e12:	60 c0       	rjmp	.+192    	; 0x3ed4 <u8g2_DrawLine+0xf4>
    3e14:	81 2f       	mov	r24, r17
    3e16:	1f 2d       	mov	r17, r15
    3e18:	f8 2e       	mov	r15, r24
    3e1a:	8c 2f       	mov	r24, r28
    3e1c:	c0 2f       	mov	r28, r16
    3e1e:	08 2f       	mov	r16, r24
    3e20:	81 e0       	ldi	r24, 0x01	; 1
    3e22:	db 2d       	mov	r29, r11
    3e24:	d6 95       	lsr	r29
    3e26:	10 17       	cp	r17, r16
    3e28:	08 f4       	brcc	.+2      	; 0x3e2c <u8g2_DrawLine+0x4c>
    3e2a:	4d c0       	rjmp	.+154    	; 0x3ec6 <u8g2_DrawLine+0xe6>
    3e2c:	0f ef       	ldi	r16, 0xFF	; 255
    3e2e:	9f ef       	ldi	r25, 0xFF	; 255
    3e30:	f9 16       	cp	r15, r25
    3e32:	09 f4       	brne	.+2      	; 0x3e36 <u8g2_DrawLine+0x56>
    3e34:	4c c0       	rjmp	.+152    	; 0x3ece <u8g2_DrawLine+0xee>
    3e36:	fc 16       	cp	r15, r28
    3e38:	d0 f0       	brcs	.+52     	; 0x3e6e <u8g2_DrawLine+0x8e>
    3e3a:	88 23       	and	r24, r24
    3e3c:	39 f1       	breq	.+78     	; 0x3e8c <u8g2_DrawLine+0xac>
    3e3e:	4c 2f       	mov	r20, r28
    3e40:	61 2f       	mov	r22, r17
    3e42:	c6 01       	movw	r24, r12
    3e44:	0e 94 a0 1e 	call	0x3d40	; 0x3d40 <u8g2_DrawPixel>
    3e48:	de 19       	sub	r29, r14
    3e4a:	d7 fd       	sbrc	r29, 7
    3e4c:	0b c0       	rjmp	.+22     	; 0x3e64 <u8g2_DrawLine+0x84>
    3e4e:	cf 5f       	subi	r28, 0xFF	; 255
    3e50:	fc 16       	cp	r15, r28
    3e52:	68 f0       	brcs	.+26     	; 0x3e6e <u8g2_DrawLine+0x8e>
    3e54:	4c 2f       	mov	r20, r28
    3e56:	61 2f       	mov	r22, r17
    3e58:	c6 01       	movw	r24, r12
    3e5a:	0e 94 a0 1e 	call	0x3d40	; 0x3d40 <u8g2_DrawPixel>
    3e5e:	de 19       	sub	r29, r14
    3e60:	d7 ff       	sbrs	r29, 7
    3e62:	f5 cf       	rjmp	.-22     	; 0x3e4e <u8g2_DrawLine+0x6e>
    3e64:	10 0f       	add	r17, r16
    3e66:	db 0d       	add	r29, r11
    3e68:	cf 5f       	subi	r28, 0xFF	; 255
    3e6a:	fc 16       	cp	r15, r28
    3e6c:	98 f7       	brcc	.-26     	; 0x3e54 <u8g2_DrawLine+0x74>
    3e6e:	df 91       	pop	r29
    3e70:	cf 91       	pop	r28
    3e72:	1f 91       	pop	r17
    3e74:	0f 91       	pop	r16
    3e76:	ff 90       	pop	r15
    3e78:	ef 90       	pop	r14
    3e7a:	df 90       	pop	r13
    3e7c:	cf 90       	pop	r12
    3e7e:	bf 90       	pop	r11
    3e80:	08 95       	ret
    3e82:	10 0f       	add	r17, r16
    3e84:	db 0d       	add	r29, r11
    3e86:	cf 5f       	subi	r28, 0xFF	; 255
    3e88:	fc 16       	cp	r15, r28
    3e8a:	88 f3       	brcs	.-30     	; 0x3e6e <u8g2_DrawLine+0x8e>
    3e8c:	41 2f       	mov	r20, r17
    3e8e:	6c 2f       	mov	r22, r28
    3e90:	c6 01       	movw	r24, r12
    3e92:	0e 94 a0 1e 	call	0x3d40	; 0x3d40 <u8g2_DrawPixel>
    3e96:	de 19       	sub	r29, r14
    3e98:	d7 ff       	sbrs	r29, 7
    3e9a:	f5 cf       	rjmp	.-22     	; 0x3e86 <u8g2_DrawLine+0xa6>
    3e9c:	f2 cf       	rjmp	.-28     	; 0x3e82 <u8g2_DrawLine+0xa2>
    3e9e:	e2 2e       	mov	r14, r18
    3ea0:	e6 1a       	sub	r14, r22
    3ea2:	01 17       	cp	r16, r17
    3ea4:	08 f4       	brcc	.+2      	; 0x3ea8 <u8g2_DrawLine+0xc8>
    3ea6:	b1 cf       	rjmp	.-158    	; 0x3e0a <u8g2_DrawLine+0x2a>
    3ea8:	b0 2e       	mov	r11, r16
    3eaa:	b1 1a       	sub	r11, r17
    3eac:	eb 14       	cp	r14, r11
    3eae:	60 f1       	brcs	.+88     	; 0x3f08 <u8g2_DrawLine+0x128>
    3eb0:	fc 16       	cp	r15, r28
    3eb2:	f0 f0       	brcs	.+60     	; 0x3ef0 <u8g2_DrawLine+0x110>
    3eb4:	8b 2d       	mov	r24, r11
    3eb6:	be 2c       	mov	r11, r14
    3eb8:	e8 2e       	mov	r14, r24
    3eba:	80 e0       	ldi	r24, 0x00	; 0
    3ebc:	db 2d       	mov	r29, r11
    3ebe:	d6 95       	lsr	r29
    3ec0:	10 17       	cp	r17, r16
    3ec2:	08 f0       	brcs	.+2      	; 0x3ec6 <u8g2_DrawLine+0xe6>
    3ec4:	b3 cf       	rjmp	.-154    	; 0x3e2c <u8g2_DrawLine+0x4c>
    3ec6:	01 e0       	ldi	r16, 0x01	; 1
    3ec8:	9f ef       	ldi	r25, 0xFF	; 255
    3eca:	f9 12       	cpse	r15, r25
    3ecc:	b4 cf       	rjmp	.-152    	; 0x3e36 <u8g2_DrawLine+0x56>
    3ece:	9e ef       	ldi	r25, 0xFE	; 254
    3ed0:	f9 2e       	mov	r15, r25
    3ed2:	b1 cf       	rjmp	.-158    	; 0x3e36 <u8g2_DrawLine+0x56>
    3ed4:	fc 16       	cp	r15, r28
    3ed6:	70 f7       	brcc	.-36     	; 0x3eb4 <u8g2_DrawLine+0xd4>
    3ed8:	de 2d       	mov	r29, r14
    3eda:	d6 95       	lsr	r29
    3edc:	8e 2d       	mov	r24, r14
    3ede:	eb 2c       	mov	r14, r11
    3ee0:	b8 2e       	mov	r11, r24
    3ee2:	10 2f       	mov	r17, r16
    3ee4:	8c 2f       	mov	r24, r28
    3ee6:	cf 2d       	mov	r28, r15
    3ee8:	f8 2e       	mov	r15, r24
    3eea:	80 e0       	ldi	r24, 0x00	; 0
    3eec:	01 e0       	ldi	r16, 0x01	; 1
    3eee:	ec cf       	rjmp	.-40     	; 0x3ec8 <u8g2_DrawLine+0xe8>
    3ef0:	de 2d       	mov	r29, r14
    3ef2:	d6 95       	lsr	r29
    3ef4:	8e 2d       	mov	r24, r14
    3ef6:	eb 2c       	mov	r14, r11
    3ef8:	b8 2e       	mov	r11, r24
    3efa:	10 2f       	mov	r17, r16
    3efc:	8c 2f       	mov	r24, r28
    3efe:	cf 2d       	mov	r28, r15
    3f00:	f8 2e       	mov	r15, r24
    3f02:	80 e0       	ldi	r24, 0x00	; 0
    3f04:	0f ef       	ldi	r16, 0xFF	; 255
    3f06:	93 cf       	rjmp	.-218    	; 0x3e2e <u8g2_DrawLine+0x4e>
    3f08:	8f 2d       	mov	r24, r15
    3f0a:	f0 2e       	mov	r15, r16
    3f0c:	08 2f       	mov	r16, r24
    3f0e:	8c 2f       	mov	r24, r28
    3f10:	c1 2f       	mov	r28, r17
    3f12:	18 2f       	mov	r17, r24
    3f14:	81 e0       	ldi	r24, 0x01	; 1
    3f16:	85 cf       	rjmp	.-246    	; 0x3e22 <u8g2_DrawLine+0x42>

00003f18 <u8g2_ll_hvline_vertical_top_lsb>:
    3f18:	ff 92       	push	r15
    3f1a:	0f 93       	push	r16
    3f1c:	1f 93       	push	r17
    3f1e:	cf 93       	push	r28
    3f20:	df 93       	push	r29
    3f22:	dc 01       	movw	r26, r24
    3f24:	34 2f       	mov	r19, r20
    3f26:	37 70       	andi	r19, 0x07	; 7
    3f28:	81 e0       	ldi	r24, 0x01	; 1
    3f2a:	90 e0       	ldi	r25, 0x00	; 0
    3f2c:	03 2e       	mov	r0, r19
    3f2e:	01 c0       	rjmp	.+2      	; 0x3f32 <u8g2_ll_hvline_vertical_top_lsb+0x1a>
    3f30:	88 0f       	add	r24, r24
    3f32:	0a 94       	dec	r0
    3f34:	ea f7       	brpl	.-6      	; 0x3f30 <u8g2_ll_hvline_vertical_top_lsb+0x18>
    3f36:	18 2f       	mov	r17, r24
    3f38:	ed 01       	movw	r28, r26
    3f3a:	cd 59       	subi	r28, 0x9D	; 157
    3f3c:	df 4f       	sbci	r29, 0xFF	; 255
    3f3e:	58 81       	ld	r21, Y
    3f40:	52 30       	cpi	r21, 0x02	; 2
    3f42:	e8 f1       	brcs	.+122    	; 0x3fbe <u8g2_ll_hvline_vertical_top_lsb+0xa6>
    3f44:	70 e0       	ldi	r23, 0x00	; 0
    3f46:	50 e0       	ldi	r21, 0x00	; 0
    3f48:	48 7f       	andi	r20, 0xF8	; 248
    3f4a:	92 96       	adiw	r26, 0x22	; 34
    3f4c:	8d 91       	ld	r24, X+
    3f4e:	9c 91       	ld	r25, X
    3f50:	93 97       	sbiw	r26, 0x23	; 35
    3f52:	ed 91       	ld	r30, X+
    3f54:	fc 91       	ld	r31, X
    3f56:	11 97       	sbiw	r26, 0x01	; 1
    3f58:	f0 88       	ldd	r15, Z+16	; 0x10
    3f5a:	f4 9e       	mul	r15, r20
    3f5c:	f0 01       	movw	r30, r0
    3f5e:	f5 9e       	mul	r15, r21
    3f60:	f0 0d       	add	r31, r0
    3f62:	11 24       	eor	r1, r1
    3f64:	e6 0f       	add	r30, r22
    3f66:	f1 1d       	adc	r31, r1
    3f68:	e8 0f       	add	r30, r24
    3f6a:	f9 1f       	adc	r31, r25
    3f6c:	01 11       	cpse	r16, r1
    3f6e:	17 c0       	rjmp	.+46     	; 0x3f9e <u8g2_ll_hvline_vertical_top_lsb+0x86>
    3f70:	80 81       	ld	r24, Z
    3f72:	87 2b       	or	r24, r23
    3f74:	81 27       	eor	r24, r17
    3f76:	81 93       	st	Z+, r24
    3f78:	21 50       	subi	r18, 0x01	; 1
    3f7a:	d1 f7       	brne	.-12     	; 0x3f70 <u8g2_ll_hvline_vertical_top_lsb+0x58>
    3f7c:	df 91       	pop	r29
    3f7e:	cf 91       	pop	r28
    3f80:	1f 91       	pop	r17
    3f82:	0f 91       	pop	r16
    3f84:	ff 90       	pop	r15
    3f86:	08 95       	ret
    3f88:	96 96       	adiw	r26, 0x26	; 38
    3f8a:	8c 91       	ld	r24, X
    3f8c:	96 97       	sbiw	r26, 0x26	; 38
    3f8e:	e8 0f       	add	r30, r24
    3f90:	f1 1d       	adc	r31, r1
    3f92:	88 81       	ld	r24, Y
    3f94:	82 30       	cpi	r24, 0x02	; 2
    3f96:	78 f0       	brcs	.+30     	; 0x3fb6 <u8g2_ll_hvline_vertical_top_lsb+0x9e>
    3f98:	11 e0       	ldi	r17, 0x01	; 1
    3f9a:	22 23       	and	r18, r18
    3f9c:	79 f3       	breq	.-34     	; 0x3f7c <u8g2_ll_hvline_vertical_top_lsb+0x64>
    3f9e:	90 81       	ld	r25, Z
    3fa0:	97 2b       	or	r25, r23
    3fa2:	91 27       	eor	r25, r17
    3fa4:	90 83       	st	Z, r25
    3fa6:	3f 5f       	subi	r19, 0xFF	; 255
    3fa8:	37 70       	andi	r19, 0x07	; 7
    3faa:	21 50       	subi	r18, 0x01	; 1
    3fac:	33 23       	and	r19, r19
    3fae:	61 f3       	breq	.-40     	; 0x3f88 <u8g2_ll_hvline_vertical_top_lsb+0x70>
    3fb0:	77 0f       	add	r23, r23
    3fb2:	11 0f       	add	r17, r17
    3fb4:	f2 cf       	rjmp	.-28     	; 0x3f9a <u8g2_ll_hvline_vertical_top_lsb+0x82>
    3fb6:	81 30       	cpi	r24, 0x01	; 1
    3fb8:	41 f4       	brne	.+16     	; 0x3fca <u8g2_ll_hvline_vertical_top_lsb+0xb2>
    3fba:	71 e0       	ldi	r23, 0x01	; 1
    3fbc:	ee cf       	rjmp	.-36     	; 0x3f9a <u8g2_ll_hvline_vertical_top_lsb+0x82>
    3fbe:	78 2f       	mov	r23, r24
    3fc0:	51 30       	cpi	r21, 0x01	; 1
    3fc2:	09 f0       	breq	.+2      	; 0x3fc6 <u8g2_ll_hvline_vertical_top_lsb+0xae>
    3fc4:	c0 cf       	rjmp	.-128    	; 0x3f46 <u8g2_ll_hvline_vertical_top_lsb+0x2e>
    3fc6:	10 e0       	ldi	r17, 0x00	; 0
    3fc8:	be cf       	rjmp	.-132    	; 0x3f46 <u8g2_ll_hvline_vertical_top_lsb+0x2e>
    3fca:	11 e0       	ldi	r17, 0x01	; 1
    3fcc:	71 e0       	ldi	r23, 0x01	; 1
    3fce:	e5 cf       	rjmp	.-54     	; 0x3f9a <u8g2_ll_hvline_vertical_top_lsb+0x82>

00003fd0 <u8g2_draw_l90_r0>:
    3fd0:	0f 93       	push	r16
    3fd2:	0e 94 24 1e 	call	0x3c48	; 0x3c48 <u8g2_draw_hv_line_2dir>
    3fd6:	0f 91       	pop	r16
    3fd8:	08 95       	ret

00003fda <u8g2_update_dimension_r0>:
    3fda:	fc 01       	movw	r30, r24
    3fdc:	a0 81       	ld	r26, Z
    3fde:	b1 81       	ldd	r27, Z+1	; 0x01
    3fe0:	64 a1       	ldd	r22, Z+36	; 0x24
    3fe2:	86 2f       	mov	r24, r22
    3fe4:	88 0f       	add	r24, r24
    3fe6:	88 0f       	add	r24, r24
    3fe8:	88 0f       	add	r24, r24
    3fea:	87 a3       	std	Z+39, r24	; 0x27
    3fec:	50 96       	adiw	r26, 0x10	; 16
    3fee:	9c 91       	ld	r25, X
    3ff0:	50 97       	sbiw	r26, 0x10	; 16
    3ff2:	90 32       	cpi	r25, 0x20	; 32
    3ff4:	08 f0       	brcs	.+2      	; 0x3ff8 <u8g2_update_dimension_r0+0x1e>
    3ff6:	9f e1       	ldi	r25, 0x1F	; 31
    3ff8:	99 0f       	add	r25, r25
    3ffa:	99 0f       	add	r25, r25
    3ffc:	99 0f       	add	r25, r25
    3ffe:	96 a3       	std	Z+38, r25	; 0x26
    4000:	55 a1       	ldd	r21, Z+37	; 0x25
    4002:	95 2f       	mov	r25, r21
    4004:	99 0f       	add	r25, r25
    4006:	99 0f       	add	r25, r25
    4008:	99 0f       	add	r25, r25
    400a:	90 a7       	std	Z+40, r25	; 0x28
    400c:	51 96       	adiw	r26, 0x11	; 17
    400e:	4c 91       	ld	r20, X
    4010:	51 97       	sbiw	r26, 0x11	; 17
    4012:	25 2f       	mov	r18, r21
    4014:	30 e0       	ldi	r19, 0x00	; 0
    4016:	26 0f       	add	r18, r22
    4018:	31 1d       	adc	r19, r1
    401a:	64 2f       	mov	r22, r20
    401c:	70 e0       	ldi	r23, 0x00	; 0
    401e:	62 17       	cp	r22, r18
    4020:	73 07       	cpc	r23, r19
    4022:	2c f4       	brge	.+10     	; 0x402e <u8g2_update_dimension_r0+0x54>
    4024:	84 2f       	mov	r24, r20
    4026:	85 1b       	sub	r24, r21
    4028:	88 0f       	add	r24, r24
    402a:	88 0f       	add	r24, r24
    402c:	88 0f       	add	r24, r24
    402e:	91 a7       	std	Z+41, r25	; 0x29
    4030:	89 0f       	add	r24, r25
    4032:	82 a7       	std	Z+42, r24	; 0x2a
    4034:	80 ef       	ldi	r24, 0xF0	; 240
    4036:	83 a7       	std	Z+43, r24	; 0x2b
    4038:	54 96       	adiw	r26, 0x14	; 20
    403a:	8d 91       	ld	r24, X+
    403c:	9c 91       	ld	r25, X
    403e:	55 97       	sbiw	r26, 0x15	; 21
    4040:	81 3f       	cpi	r24, 0xF1	; 241
    4042:	91 05       	cpc	r25, r1
    4044:	08 f4       	brcc	.+2      	; 0x4048 <u8g2_update_dimension_r0+0x6e>
    4046:	83 a7       	std	Z+43, r24	; 0x2b
    4048:	56 96       	adiw	r26, 0x16	; 22
    404a:	8c 91       	ld	r24, X
    404c:	84 a7       	std	Z+44, r24	; 0x2c
    404e:	08 95       	ret

00004050 <u8g2_update_page_win_r0>:
    4050:	0f 93       	push	r16
    4052:	cf 93       	push	r28
    4054:	df 93       	push	r29
    4056:	ec 01       	movw	r28, r24
    4058:	1d a6       	std	Y+45, r1	; 0x2d
    405a:	8b a5       	ldd	r24, Y+43	; 0x2b
    405c:	8e a7       	std	Y+46, r24	; 0x2e
    405e:	89 a5       	ldd	r24, Y+41	; 0x29
    4060:	8f a7       	std	Y+47, r24	; 0x2f
    4062:	8a a5       	ldd	r24, Y+42	; 0x2a
    4064:	88 ab       	std	Y+48, r24	; 0x30
    4066:	0c a9       	ldd	r16, Y+52	; 0x34
    4068:	2a a9       	ldd	r18, Y+50	; 0x32
    406a:	4b a9       	ldd	r20, Y+51	; 0x33
    406c:	69 a9       	ldd	r22, Y+49	; 0x31
    406e:	ce 01       	movw	r24, r28
    4070:	0e 94 d1 1e 	call	0x3da2	; 0x3da2 <u8g2_IsIntersection>
    4074:	88 23       	and	r24, r24
    4076:	e9 f0       	breq	.+58     	; 0x40b2 <u8g2_update_page_win_r0+0x62>
    4078:	81 e0       	ldi	r24, 0x01	; 1
    407a:	fe 01       	movw	r30, r28
    407c:	e3 5a       	subi	r30, 0xA3	; 163
    407e:	ff 4f       	sbci	r31, 0xFF	; 255
    4080:	80 83       	st	Z, r24
    4082:	89 a9       	ldd	r24, Y+49	; 0x31
    4084:	9d a5       	ldd	r25, Y+45	; 0x2d
    4086:	98 17       	cp	r25, r24
    4088:	08 f4       	brcc	.+2      	; 0x408c <u8g2_update_page_win_r0+0x3c>
    408a:	8d a7       	std	Y+45, r24	; 0x2d
    408c:	8a a9       	ldd	r24, Y+50	; 0x32
    408e:	9e a5       	ldd	r25, Y+46	; 0x2e
    4090:	89 17       	cp	r24, r25
    4092:	08 f4       	brcc	.+2      	; 0x4096 <u8g2_update_page_win_r0+0x46>
    4094:	8e a7       	std	Y+46, r24	; 0x2e
    4096:	8b a9       	ldd	r24, Y+51	; 0x33
    4098:	9f a5       	ldd	r25, Y+47	; 0x2f
    409a:	98 17       	cp	r25, r24
    409c:	08 f4       	brcc	.+2      	; 0x40a0 <u8g2_update_page_win_r0+0x50>
    409e:	8f a7       	std	Y+47, r24	; 0x2f
    40a0:	8c a9       	ldd	r24, Y+52	; 0x34
    40a2:	98 a9       	ldd	r25, Y+48	; 0x30
    40a4:	89 17       	cp	r24, r25
    40a6:	08 f4       	brcc	.+2      	; 0x40aa <u8g2_update_page_win_r0+0x5a>
    40a8:	88 ab       	std	Y+48, r24	; 0x30
    40aa:	df 91       	pop	r29
    40ac:	cf 91       	pop	r28
    40ae:	0f 91       	pop	r16
    40b0:	08 95       	ret
    40b2:	c3 5a       	subi	r28, 0xA3	; 163
    40b4:	df 4f       	sbci	r29, 0xFF	; 255
    40b6:	18 82       	st	Y, r1
    40b8:	df 91       	pop	r29
    40ba:	cf 91       	pop	r28
    40bc:	0f 91       	pop	r16
    40be:	08 95       	ret

000040c0 <u8g2_SetupBuffer>:
    40c0:	0f 93       	push	r16
    40c2:	1f 93       	push	r17
    40c4:	cf 93       	push	r28
    40c6:	df 93       	push	r29
    40c8:	ec 01       	movw	r28, r24
    40ca:	1e aa       	std	Y+54, r1	; 0x36
    40cc:	1d aa       	std	Y+53, r1	; 0x35
    40ce:	3f 8f       	std	Y+31, r19	; 0x1f
    40d0:	2e 8f       	std	Y+30, r18	; 0x1e
    40d2:	7b a3       	std	Y+35, r23	; 0x23
    40d4:	6a a3       	std	Y+34, r22	; 0x22
    40d6:	4c a3       	std	Y+36, r20	; 0x24
    40d8:	1d a2       	std	Y+37, r1	; 0x25
    40da:	fc 01       	movw	r30, r24
    40dc:	ee 5b       	subi	r30, 0xBE	; 190
    40de:	ff 4f       	sbci	r31, 0xFF	; 255
    40e0:	10 82       	st	Z, r1
    40e2:	b0 96       	adiw	r30, 0x20	; 32
    40e4:	10 82       	st	Z, r1
    40e6:	31 96       	adiw	r30, 0x01	; 1
    40e8:	81 e0       	ldi	r24, 0x01	; 1
    40ea:	80 83       	st	Z, r24
    40ec:	31 96       	adiw	r30, 0x01	; 1
    40ee:	80 83       	st	Z, r24
    40f0:	19 a3       	std	Y+33, r17	; 0x21
    40f2:	08 a3       	std	Y+32, r16	; 0x20
    40f4:	d8 01       	movw	r26, r16
    40f6:	ed 91       	ld	r30, X+
    40f8:	fc 91       	ld	r31, X
    40fa:	ce 01       	movw	r24, r28
    40fc:	09 95       	icall
    40fe:	19 aa       	std	Y+49, r1	; 0x31
    4100:	1b aa       	std	Y+51, r1	; 0x33
    4102:	8f ef       	ldi	r24, 0xFF	; 255
    4104:	8a ab       	std	Y+50, r24	; 0x32
    4106:	8c ab       	std	Y+52, r24	; 0x34
    4108:	e8 a1       	ldd	r30, Y+32	; 0x20
    410a:	f9 a1       	ldd	r31, Y+33	; 0x21
    410c:	02 80       	ldd	r0, Z+2	; 0x02
    410e:	f3 81       	ldd	r31, Z+3	; 0x03
    4110:	e0 2d       	mov	r30, r0
    4112:	ce 01       	movw	r24, r28
    4114:	09 95       	icall
    4116:	ce 01       	movw	r24, r28
    4118:	0e 94 49 1d 	call	0x3a92	; 0x3a92 <u8g2_SetFontPosBaseline>
    411c:	cb 5b       	subi	r28, 0xBB	; 187
    411e:	df 4f       	sbci	r29, 0xFF	; 255
    4120:	18 82       	st	Y, r1
    4122:	df 91       	pop	r29
    4124:	cf 91       	pop	r28
    4126:	1f 91       	pop	r17
    4128:	0f 91       	pop	r16
    412a:	08 95       	ret

0000412c <u8x8_ascii_next>:
    412c:	61 11       	cpse	r22, r1
    412e:	03 c0       	rjmp	.+6      	; 0x4136 <u8x8_ascii_next+0xa>
    4130:	8f ef       	ldi	r24, 0xFF	; 255
    4132:	9f ef       	ldi	r25, 0xFF	; 255
    4134:	08 95       	ret
    4136:	6a 30       	cpi	r22, 0x0A	; 10
    4138:	d9 f3       	breq	.-10     	; 0x4130 <u8x8_ascii_next+0x4>
    413a:	86 2f       	mov	r24, r22
    413c:	90 e0       	ldi	r25, 0x00	; 0
    413e:	08 95       	ret

00004140 <u8x8_utf8_init>:
    4140:	fc 01       	movw	r30, r24
    4142:	10 8e       	std	Z+24, r1	; 0x18
    4144:	08 95       	ret

00004146 <u8x8_byte_SetDC>:
    4146:	46 2f       	mov	r20, r22
    4148:	dc 01       	movw	r26, r24
    414a:	18 96       	adiw	r26, 0x08	; 8
    414c:	ed 91       	ld	r30, X+
    414e:	fc 91       	ld	r31, X
    4150:	19 97       	sbiw	r26, 0x09	; 9
    4152:	20 e0       	ldi	r18, 0x00	; 0
    4154:	30 e0       	ldi	r19, 0x00	; 0
    4156:	60 e2       	ldi	r22, 0x20	; 32
    4158:	09 94       	ijmp

0000415a <u8x8_byte_SendBytes>:
    415a:	9a 01       	movw	r18, r20
    415c:	dc 01       	movw	r26, r24
    415e:	18 96       	adiw	r26, 0x08	; 8
    4160:	ed 91       	ld	r30, X+
    4162:	fc 91       	ld	r31, X
    4164:	19 97       	sbiw	r26, 0x09	; 9
    4166:	46 2f       	mov	r20, r22
    4168:	67 e1       	ldi	r22, 0x17	; 23
    416a:	09 94       	ijmp

0000416c <u8x8_byte_SendByte>:
    416c:	cf 93       	push	r28
    416e:	df 93       	push	r29
    4170:	1f 92       	push	r1
    4172:	cd b7       	in	r28, 0x3d	; 61
    4174:	de b7       	in	r29, 0x3e	; 62
    4176:	69 83       	std	Y+1, r22	; 0x01
    4178:	ae 01       	movw	r20, r28
    417a:	4f 5f       	subi	r20, 0xFF	; 255
    417c:	5f 4f       	sbci	r21, 0xFF	; 255
    417e:	61 e0       	ldi	r22, 0x01	; 1
    4180:	0e 94 ad 20 	call	0x415a	; 0x415a <u8x8_byte_SendBytes>
    4184:	0f 90       	pop	r0
    4186:	df 91       	pop	r29
    4188:	cf 91       	pop	r28
    418a:	08 95       	ret

0000418c <u8x8_cad_SendCmd>:
    418c:	46 2f       	mov	r20, r22
    418e:	dc 01       	movw	r26, r24
    4190:	16 96       	adiw	r26, 0x06	; 6
    4192:	ed 91       	ld	r30, X+
    4194:	fc 91       	ld	r31, X
    4196:	17 97       	sbiw	r26, 0x07	; 7
    4198:	20 e0       	ldi	r18, 0x00	; 0
    419a:	30 e0       	ldi	r19, 0x00	; 0
    419c:	65 e1       	ldi	r22, 0x15	; 21
    419e:	09 94       	ijmp

000041a0 <u8x8_cad_SendData>:
    41a0:	9a 01       	movw	r18, r20
    41a2:	dc 01       	movw	r26, r24
    41a4:	16 96       	adiw	r26, 0x06	; 6
    41a6:	ed 91       	ld	r30, X+
    41a8:	fc 91       	ld	r31, X
    41aa:	17 97       	sbiw	r26, 0x07	; 7
    41ac:	46 2f       	mov	r20, r22
    41ae:	67 e1       	ldi	r22, 0x17	; 23
    41b0:	09 94       	ijmp

000041b2 <u8x8_cad_StartTransfer>:
    41b2:	dc 01       	movw	r26, r24
    41b4:	16 96       	adiw	r26, 0x06	; 6
    41b6:	ed 91       	ld	r30, X+
    41b8:	fc 91       	ld	r31, X
    41ba:	17 97       	sbiw	r26, 0x07	; 7
    41bc:	20 e0       	ldi	r18, 0x00	; 0
    41be:	30 e0       	ldi	r19, 0x00	; 0
    41c0:	40 e0       	ldi	r20, 0x00	; 0
    41c2:	68 e1       	ldi	r22, 0x18	; 24
    41c4:	09 94       	ijmp

000041c6 <u8x8_cad_EndTransfer>:
    41c6:	dc 01       	movw	r26, r24
    41c8:	16 96       	adiw	r26, 0x06	; 6
    41ca:	ed 91       	ld	r30, X+
    41cc:	fc 91       	ld	r31, X
    41ce:	17 97       	sbiw	r26, 0x07	; 7
    41d0:	20 e0       	ldi	r18, 0x00	; 0
    41d2:	30 e0       	ldi	r19, 0x00	; 0
    41d4:	40 e0       	ldi	r20, 0x00	; 0
    41d6:	69 e1       	ldi	r22, 0x19	; 25
    41d8:	09 94       	ijmp

000041da <u8x8_cad_110>:
    41da:	ef 92       	push	r14
    41dc:	ff 92       	push	r15
    41de:	0f 93       	push	r16
    41e0:	1f 93       	push	r17
    41e2:	cf 93       	push	r28
    41e4:	df 93       	push	r29
    41e6:	8c 01       	movw	r16, r24
    41e8:	c6 2f       	mov	r28, r22
    41ea:	d4 2f       	mov	r29, r20
    41ec:	79 01       	movw	r14, r18
    41ee:	66 31       	cpi	r22, 0x16	; 22
    41f0:	29 f0       	breq	.+10     	; 0x41fc <u8x8_cad_110+0x22>
    41f2:	a0 f4       	brcc	.+40     	; 0x421c <u8x8_cad_110+0x42>
    41f4:	64 31       	cpi	r22, 0x14	; 20
    41f6:	09 f1       	breq	.+66     	; 0x423a <u8x8_cad_110+0x60>
    41f8:	65 31       	cpi	r22, 0x15	; 21
    41fa:	a1 f4       	brne	.+40     	; 0x4224 <u8x8_cad_110+0x4a>
    41fc:	61 e0       	ldi	r22, 0x01	; 1
    41fe:	c8 01       	movw	r24, r16
    4200:	0e 94 a3 20 	call	0x4146	; 0x4146 <u8x8_byte_SetDC>
    4204:	6d 2f       	mov	r22, r29
    4206:	c8 01       	movw	r24, r16
    4208:	0e 94 b6 20 	call	0x416c	; 0x416c <u8x8_byte_SendByte>
    420c:	81 e0       	ldi	r24, 0x01	; 1
    420e:	df 91       	pop	r29
    4210:	cf 91       	pop	r28
    4212:	1f 91       	pop	r17
    4214:	0f 91       	pop	r16
    4216:	ff 90       	pop	r15
    4218:	ef 90       	pop	r14
    421a:	08 95       	ret
    421c:	67 31       	cpi	r22, 0x17	; 23
    421e:	51 f0       	breq	.+20     	; 0x4234 <u8x8_cad_110+0x5a>
    4220:	6a 31       	cpi	r22, 0x1A	; 26
    4222:	58 f0       	brcs	.+22     	; 0x423a <u8x8_cad_110+0x60>
    4224:	80 e0       	ldi	r24, 0x00	; 0
    4226:	df 91       	pop	r29
    4228:	cf 91       	pop	r28
    422a:	1f 91       	pop	r17
    422c:	0f 91       	pop	r16
    422e:	ff 90       	pop	r15
    4230:	ef 90       	pop	r14
    4232:	08 95       	ret
    4234:	60 e0       	ldi	r22, 0x00	; 0
    4236:	0e 94 a3 20 	call	0x4146	; 0x4146 <u8x8_byte_SetDC>
    423a:	d8 01       	movw	r26, r16
    423c:	18 96       	adiw	r26, 0x08	; 8
    423e:	ed 91       	ld	r30, X+
    4240:	fc 91       	ld	r31, X
    4242:	19 97       	sbiw	r26, 0x09	; 9
    4244:	97 01       	movw	r18, r14
    4246:	4d 2f       	mov	r20, r29
    4248:	6c 2f       	mov	r22, r28
    424a:	c8 01       	movw	r24, r16
    424c:	df 91       	pop	r29
    424e:	cf 91       	pop	r28
    4250:	1f 91       	pop	r17
    4252:	0f 91       	pop	r16
    4254:	ff 90       	pop	r15
    4256:	ef 90       	pop	r14
    4258:	09 94       	ijmp

0000425a <u8x8_d_helper_display_setup_memory>:
    425a:	fc 01       	movw	r30, r24
    425c:	71 83       	std	Z+1, r23	; 0x01
    425e:	60 83       	st	Z, r22
    4260:	fb 01       	movw	r30, r22
    4262:	22 89       	ldd	r18, Z+18	; 0x12
    4264:	fc 01       	movw	r30, r24
    4266:	24 8b       	std	Z+20, r18	; 0x14
    4268:	08 95       	ret

0000426a <u8x8_d_helper_display_init>:
    426a:	cf 93       	push	r28
    426c:	df 93       	push	r29
    426e:	ec 01       	movw	r28, r24
    4270:	ea 85       	ldd	r30, Y+10	; 0x0a
    4272:	fb 85       	ldd	r31, Y+11	; 0x0b
    4274:	20 e0       	ldi	r18, 0x00	; 0
    4276:	30 e0       	ldi	r19, 0x00	; 0
    4278:	40 e0       	ldi	r20, 0x00	; 0
    427a:	68 e2       	ldi	r22, 0x28	; 40
    427c:	09 95       	icall
    427e:	ee 81       	ldd	r30, Y+6	; 0x06
    4280:	ff 81       	ldd	r31, Y+7	; 0x07
    4282:	20 e0       	ldi	r18, 0x00	; 0
    4284:	30 e0       	ldi	r19, 0x00	; 0
    4286:	40 e0       	ldi	r20, 0x00	; 0
    4288:	64 e1       	ldi	r22, 0x14	; 20
    428a:	ce 01       	movw	r24, r28
    428c:	09 95       	icall
    428e:	41 e0       	ldi	r20, 0x01	; 1
    4290:	6b e4       	ldi	r22, 0x4B	; 75
    4292:	ce 01       	movw	r24, r28
    4294:	0e 94 c6 22 	call	0x458c	; 0x458c <u8x8_gpio_call>
    4298:	e8 81       	ld	r30, Y
    429a:	f9 81       	ldd	r31, Y+1	; 0x01
    429c:	44 81       	ldd	r20, Z+4	; 0x04
    429e:	69 e2       	ldi	r22, 0x29	; 41
    42a0:	ce 01       	movw	r24, r28
    42a2:	0e 94 c6 22 	call	0x458c	; 0x458c <u8x8_gpio_call>
    42a6:	40 e0       	ldi	r20, 0x00	; 0
    42a8:	6b e4       	ldi	r22, 0x4B	; 75
    42aa:	ce 01       	movw	r24, r28
    42ac:	0e 94 c6 22 	call	0x458c	; 0x458c <u8x8_gpio_call>
    42b0:	e8 81       	ld	r30, Y
    42b2:	f9 81       	ldd	r31, Y+1	; 0x01
    42b4:	44 81       	ldd	r20, Z+4	; 0x04
    42b6:	69 e2       	ldi	r22, 0x29	; 41
    42b8:	ce 01       	movw	r24, r28
    42ba:	0e 94 c6 22 	call	0x458c	; 0x458c <u8x8_gpio_call>
    42be:	41 e0       	ldi	r20, 0x01	; 1
    42c0:	6b e4       	ldi	r22, 0x4B	; 75
    42c2:	ce 01       	movw	r24, r28
    42c4:	0e 94 c6 22 	call	0x458c	; 0x458c <u8x8_gpio_call>
    42c8:	e8 81       	ld	r30, Y
    42ca:	f9 81       	ldd	r31, Y+1	; 0x01
    42cc:	45 81       	ldd	r20, Z+5	; 0x05
    42ce:	69 e2       	ldi	r22, 0x29	; 41
    42d0:	ce 01       	movw	r24, r28
    42d2:	df 91       	pop	r29
    42d4:	cf 91       	pop	r28
    42d6:	0c 94 c6 22 	jmp	0x458c	; 0x458c <u8x8_gpio_call>

000042da <u8x8_DrawTile>:
    42da:	0f 93       	push	r16
    42dc:	1f 93       	push	r17
    42de:	cf 93       	push	r28
    42e0:	df 93       	push	r29
    42e2:	00 d0       	rcall	.+0      	; 0x42e4 <u8x8_DrawTile+0xa>
    42e4:	00 d0       	rcall	.+0      	; 0x42e6 <u8x8_DrawTile+0xc>
    42e6:	1f 92       	push	r1
    42e8:	cd b7       	in	r28, 0x3d	; 61
    42ea:	de b7       	in	r29, 0x3e	; 62
    42ec:	6c 83       	std	Y+4, r22	; 0x04
    42ee:	4d 83       	std	Y+5, r20	; 0x05
    42f0:	2b 83       	std	Y+3, r18	; 0x03
    42f2:	1a 83       	std	Y+2, r17	; 0x02
    42f4:	09 83       	std	Y+1, r16	; 0x01
    42f6:	dc 01       	movw	r26, r24
    42f8:	14 96       	adiw	r26, 0x04	; 4
    42fa:	ed 91       	ld	r30, X+
    42fc:	fc 91       	ld	r31, X
    42fe:	15 97       	sbiw	r26, 0x05	; 5
    4300:	9e 01       	movw	r18, r28
    4302:	2f 5f       	subi	r18, 0xFF	; 255
    4304:	3f 4f       	sbci	r19, 0xFF	; 255
    4306:	41 e0       	ldi	r20, 0x01	; 1
    4308:	6f e0       	ldi	r22, 0x0F	; 15
    430a:	09 95       	icall
    430c:	0f 90       	pop	r0
    430e:	0f 90       	pop	r0
    4310:	0f 90       	pop	r0
    4312:	0f 90       	pop	r0
    4314:	0f 90       	pop	r0
    4316:	df 91       	pop	r29
    4318:	cf 91       	pop	r28
    431a:	1f 91       	pop	r17
    431c:	0f 91       	pop	r16
    431e:	08 95       	ret

00004320 <u8x8_SetupMemory>:
    4320:	dc 01       	movw	r26, r24
    4322:	14 96       	adiw	r26, 0x04	; 4
    4324:	ed 91       	ld	r30, X+
    4326:	fc 91       	ld	r31, X
    4328:	15 97       	sbiw	r26, 0x05	; 5
    432a:	20 e0       	ldi	r18, 0x00	; 0
    432c:	30 e0       	ldi	r19, 0x00	; 0
    432e:	40 e0       	ldi	r20, 0x00	; 0
    4330:	69 e0       	ldi	r22, 0x09	; 9
    4332:	09 94       	ijmp

00004334 <u8x8_InitDisplay>:
    4334:	dc 01       	movw	r26, r24
    4336:	14 96       	adiw	r26, 0x04	; 4
    4338:	ed 91       	ld	r30, X+
    433a:	fc 91       	ld	r31, X
    433c:	15 97       	sbiw	r26, 0x05	; 5
    433e:	20 e0       	ldi	r18, 0x00	; 0
    4340:	30 e0       	ldi	r19, 0x00	; 0
    4342:	40 e0       	ldi	r20, 0x00	; 0
    4344:	6a e0       	ldi	r22, 0x0A	; 10
    4346:	09 94       	ijmp

00004348 <u8x8_SetContrast>:
    4348:	46 2f       	mov	r20, r22
    434a:	dc 01       	movw	r26, r24
    434c:	14 96       	adiw	r26, 0x04	; 4
    434e:	ed 91       	ld	r30, X+
    4350:	fc 91       	ld	r31, X
    4352:	15 97       	sbiw	r26, 0x05	; 5
    4354:	20 e0       	ldi	r18, 0x00	; 0
    4356:	30 e0       	ldi	r19, 0x00	; 0
    4358:	6e e0       	ldi	r22, 0x0E	; 14
    435a:	09 94       	ijmp

0000435c <u8x8_RefreshDisplay>:
    435c:	dc 01       	movw	r26, r24
    435e:	14 96       	adiw	r26, 0x04	; 4
    4360:	ed 91       	ld	r30, X+
    4362:	fc 91       	ld	r31, X
    4364:	15 97       	sbiw	r26, 0x05	; 5
    4366:	20 e0       	ldi	r18, 0x00	; 0
    4368:	30 e0       	ldi	r19, 0x00	; 0
    436a:	40 e0       	ldi	r20, 0x00	; 0
    436c:	60 e1       	ldi	r22, 0x10	; 16
    436e:	09 94       	ijmp

00004370 <u8x8_d_ise97002ks_gu128x64>:
    4370:	8f 92       	push	r8
    4372:	9f 92       	push	r9
    4374:	af 92       	push	r10
    4376:	bf 92       	push	r11
    4378:	cf 92       	push	r12
    437a:	df 92       	push	r13
    437c:	ef 92       	push	r14
    437e:	ff 92       	push	r15
    4380:	0f 93       	push	r16
    4382:	1f 93       	push	r17
    4384:	cf 93       	push	r28
    4386:	df 93       	push	r29
    4388:	00 d0       	rcall	.+0      	; 0x438a <u8x8_d_ise97002ks_gu128x64+0x1a>
    438a:	cd b7       	in	r28, 0x3d	; 61
    438c:	de b7       	in	r29, 0x3e	; 62
    438e:	8c 01       	movw	r16, r24
    4390:	84 2e       	mov	r8, r20
    4392:	59 01       	movw	r10, r18
    4394:	6b 30       	cpi	r22, 0x0B	; 11
    4396:	09 f4       	brne	.+2      	; 0x439a <u8x8_d_ise97002ks_gu128x64+0x2a>
    4398:	e5 c0       	rjmp	.+458    	; 0x4564 <u8x8_d_ise97002ks_gu128x64+0x1f4>
    439a:	58 f0       	brcs	.+22     	; 0x43b2 <u8x8_d_ise97002ks_gu128x64+0x42>
    439c:	6f 30       	cpi	r22, 0x0F	; 15
    439e:	09 f4       	brne	.+2      	; 0x43a2 <u8x8_d_ise97002ks_gu128x64+0x32>
    43a0:	75 c0       	rjmp	.+234    	; 0x448c <u8x8_d_ise97002ks_gu128x64+0x11c>
    43a2:	60 31       	cpi	r22, 0x10	; 16
    43a4:	09 f4       	brne	.+2      	; 0x43a8 <u8x8_d_ise97002ks_gu128x64+0x38>
    43a6:	62 c0       	rjmp	.+196    	; 0x446c <u8x8_d_ise97002ks_gu128x64+0xfc>
    43a8:	6e 30       	cpi	r22, 0x0E	; 14
    43aa:	09 f4       	brne	.+2      	; 0x43ae <u8x8_d_ise97002ks_gu128x64+0x3e>
    43ac:	cd c0       	rjmp	.+410    	; 0x4548 <u8x8_d_ise97002ks_gu128x64+0x1d8>
    43ae:	80 e0       	ldi	r24, 0x00	; 0
    43b0:	5e c0       	rjmp	.+188    	; 0x446e <u8x8_d_ise97002ks_gu128x64+0xfe>
    43b2:	69 30       	cpi	r22, 0x09	; 9
    43b4:	09 f4       	brne	.+2      	; 0x43b8 <u8x8_d_ise97002ks_gu128x64+0x48>
    43b6:	d0 c0       	rjmp	.+416    	; 0x4558 <u8x8_d_ise97002ks_gu128x64+0x1e8>
    43b8:	6a 30       	cpi	r22, 0x0A	; 10
    43ba:	c9 f7       	brne	.-14     	; 0x43ae <u8x8_d_ise97002ks_gu128x64+0x3e>
    43bc:	0e 94 35 21 	call	0x426a	; 0x426a <u8x8_d_helper_display_init>
    43c0:	c8 01       	movw	r24, r16
    43c2:	0e 94 d9 20 	call	0x41b2	; 0x41b2 <u8x8_cad_StartTransfer>
    43c6:	6f e5       	ldi	r22, 0x5F	; 95
    43c8:	c8 01       	movw	r24, r16
    43ca:	0e 94 c6 20 	call	0x418c	; 0x418c <u8x8_cad_SendCmd>
    43ce:	c8 01       	movw	r24, r16
    43d0:	0e 94 e3 20 	call	0x41c6	; 0x41c6 <u8x8_cad_EndTransfer>
    43d4:	41 e0       	ldi	r20, 0x01	; 1
    43d6:	69 e2       	ldi	r22, 0x29	; 41
    43d8:	c8 01       	movw	r24, r16
    43da:	0e 94 c6 22 	call	0x458c	; 0x458c <u8x8_gpio_call>
    43de:	f1 2c       	mov	r15, r1
    43e0:	ee 24       	eor	r14, r14
    43e2:	ea 94       	dec	r14
    43e4:	c8 01       	movw	r24, r16
    43e6:	0e 94 d9 20 	call	0x41b2	; 0x41b2 <u8x8_cad_StartTransfer>
    43ea:	62 e6       	ldi	r22, 0x62	; 98
    43ec:	c8 01       	movw	r24, r16
    43ee:	0e 94 c6 20 	call	0x418c	; 0x418c <u8x8_cad_SendCmd>
    43f2:	c8 01       	movw	r24, r16
    43f4:	0e 94 e3 20 	call	0x41c6	; 0x41c6 <u8x8_cad_EndTransfer>
    43f8:	c8 01       	movw	r24, r16
    43fa:	0e 94 d9 20 	call	0x41b2	; 0x41b2 <u8x8_cad_StartTransfer>
    43fe:	6f 2d       	mov	r22, r15
    4400:	c8 01       	movw	r24, r16
    4402:	0e 94 c6 20 	call	0x418c	; 0x418c <u8x8_cad_SendCmd>
    4406:	c8 01       	movw	r24, r16
    4408:	0e 94 e3 20 	call	0x41c6	; 0x41c6 <u8x8_cad_EndTransfer>
    440c:	ea 82       	std	Y+2, r14	; 0x02
    440e:	c8 01       	movw	r24, r16
    4410:	0e 94 d9 20 	call	0x41b2	; 0x41b2 <u8x8_cad_StartTransfer>
    4414:	ae 01       	movw	r20, r28
    4416:	4e 5f       	subi	r20, 0xFE	; 254
    4418:	5f 4f       	sbci	r21, 0xFF	; 255
    441a:	61 e0       	ldi	r22, 0x01	; 1
    441c:	c8 01       	movw	r24, r16
    441e:	0e 94 d0 20 	call	0x41a0	; 0x41a0 <u8x8_cad_SendData>
    4422:	c8 01       	movw	r24, r16
    4424:	0e 94 e3 20 	call	0x41c6	; 0x41c6 <u8x8_cad_EndTransfer>
    4428:	f3 94       	inc	r15
    442a:	88 e0       	ldi	r24, 0x08	; 8
    442c:	f8 12       	cpse	r15, r24
    442e:	da cf       	rjmp	.-76     	; 0x43e4 <u8x8_d_ise97002ks_gu128x64+0x74>
    4430:	c8 01       	movw	r24, r16
    4432:	0e 94 d9 20 	call	0x41b2	; 0x41b2 <u8x8_cad_StartTransfer>
    4436:	64 e8       	ldi	r22, 0x84	; 132
    4438:	c8 01       	movw	r24, r16
    443a:	0e 94 c6 20 	call	0x418c	; 0x418c <u8x8_cad_SendCmd>
    443e:	c8 01       	movw	r24, r16
    4440:	0e 94 e3 20 	call	0x41c6	; 0x41c6 <u8x8_cad_EndTransfer>
    4444:	c8 01       	movw	r24, r16
    4446:	0e 94 d9 20 	call	0x41b2	; 0x41b2 <u8x8_cad_StartTransfer>
    444a:	64 e2       	ldi	r22, 0x24	; 36
    444c:	c8 01       	movw	r24, r16
    444e:	0e 94 c6 20 	call	0x418c	; 0x418c <u8x8_cad_SendCmd>
    4452:	c8 01       	movw	r24, r16
    4454:	0e 94 e3 20 	call	0x41c6	; 0x41c6 <u8x8_cad_EndTransfer>
    4458:	c8 01       	movw	r24, r16
    445a:	0e 94 d9 20 	call	0x41b2	; 0x41b2 <u8x8_cad_StartTransfer>
    445e:	60 e4       	ldi	r22, 0x40	; 64
    4460:	c8 01       	movw	r24, r16
    4462:	0e 94 c6 20 	call	0x418c	; 0x418c <u8x8_cad_SendCmd>
    4466:	c8 01       	movw	r24, r16
    4468:	0e 94 e3 20 	call	0x41c6	; 0x41c6 <u8x8_cad_EndTransfer>
    446c:	81 e0       	ldi	r24, 0x01	; 1
    446e:	0f 90       	pop	r0
    4470:	0f 90       	pop	r0
    4472:	df 91       	pop	r29
    4474:	cf 91       	pop	r28
    4476:	1f 91       	pop	r17
    4478:	0f 91       	pop	r16
    447a:	ff 90       	pop	r15
    447c:	ef 90       	pop	r14
    447e:	df 90       	pop	r13
    4480:	cf 90       	pop	r12
    4482:	bf 90       	pop	r11
    4484:	af 90       	pop	r10
    4486:	9f 90       	pop	r9
    4488:	8f 90       	pop	r8
    448a:	08 95       	ret
    448c:	f9 01       	movw	r30, r18
    448e:	f3 80       	ldd	r15, Z+3	; 0x03
    4490:	ff 0c       	add	r15, r15
    4492:	ff 0c       	add	r15, r15
    4494:	ff 0c       	add	r15, r15
    4496:	fc 01       	movw	r30, r24
    4498:	84 89       	ldd	r24, Z+20	; 0x14
    449a:	f8 0e       	add	r15, r24
    449c:	c8 01       	movw	r24, r16
    449e:	0e 94 d9 20 	call	0x41b2	; 0x41b2 <u8x8_cad_StartTransfer>
    44a2:	64 e6       	ldi	r22, 0x64	; 100
    44a4:	c8 01       	movw	r24, r16
    44a6:	0e 94 c6 20 	call	0x418c	; 0x418c <u8x8_cad_SendCmd>
    44aa:	c8 01       	movw	r24, r16
    44ac:	0e 94 e3 20 	call	0x41c6	; 0x41c6 <u8x8_cad_EndTransfer>
    44b0:	c8 01       	movw	r24, r16
    44b2:	0e 94 d9 20 	call	0x41b2	; 0x41b2 <u8x8_cad_StartTransfer>
    44b6:	6f 2d       	mov	r22, r15
    44b8:	6f 77       	andi	r22, 0x7F	; 127
    44ba:	c8 01       	movw	r24, r16
    44bc:	0e 94 c6 20 	call	0x418c	; 0x418c <u8x8_cad_SendCmd>
    44c0:	c8 01       	movw	r24, r16
    44c2:	0e 94 e3 20 	call	0x41c6	; 0x41c6 <u8x8_cad_EndTransfer>
    44c6:	c8 01       	movw	r24, r16
    44c8:	0e 94 d9 20 	call	0x41b2	; 0x41b2 <u8x8_cad_StartTransfer>
    44cc:	60 e6       	ldi	r22, 0x60	; 96
    44ce:	c8 01       	movw	r24, r16
    44d0:	0e 94 c6 20 	call	0x418c	; 0x418c <u8x8_cad_SendCmd>
    44d4:	c8 01       	movw	r24, r16
    44d6:	0e 94 e3 20 	call	0x41c6	; 0x41c6 <u8x8_cad_EndTransfer>
    44da:	f5 01       	movw	r30, r10
    44dc:	84 81       	ldd	r24, Z+4	; 0x04
    44de:	8f 70       	andi	r24, 0x0F	; 15
    44e0:	f8 2e       	mov	r15, r24
    44e2:	c8 01       	movw	r24, r16
    44e4:	0e 94 d9 20 	call	0x41b2	; 0x41b2 <u8x8_cad_StartTransfer>
    44e8:	6f 2d       	mov	r22, r15
    44ea:	c8 01       	movw	r24, r16
    44ec:	0e 94 c6 20 	call	0x418c	; 0x418c <u8x8_cad_SendCmd>
    44f0:	c8 01       	movw	r24, r16
    44f2:	0e 94 e3 20 	call	0x41c6	; 0x41c6 <u8x8_cad_EndTransfer>
    44f6:	f5 01       	movw	r30, r10
    44f8:	82 81       	ldd	r24, Z+2	; 0x02
    44fa:	e0 80       	ld	r14, Z
    44fc:	f1 80       	ldd	r15, Z+1	; 0x01
    44fe:	f8 e0       	ldi	r31, 0x08	; 8
    4500:	8f 9f       	mul	r24, r31
    4502:	60 01       	movw	r12, r0
    4504:	11 24       	eor	r1, r1
    4506:	88 23       	and	r24, r24
    4508:	d9 f0       	breq	.+54     	; 0x4540 <u8x8_d_ise97002ks_gu128x64+0x1d0>
    450a:	91 2c       	mov	r9, r1
    450c:	80 e0       	ldi	r24, 0x00	; 0
    450e:	90 e0       	ldi	r25, 0x00	; 0
    4510:	f7 01       	movw	r30, r14
    4512:	e8 0f       	add	r30, r24
    4514:	f9 1f       	adc	r31, r25
    4516:	80 81       	ld	r24, Z
    4518:	89 83       	std	Y+1, r24	; 0x01
    451a:	c8 01       	movw	r24, r16
    451c:	0e 94 d9 20 	call	0x41b2	; 0x41b2 <u8x8_cad_StartTransfer>
    4520:	ae 01       	movw	r20, r28
    4522:	4f 5f       	subi	r20, 0xFF	; 255
    4524:	5f 4f       	sbci	r21, 0xFF	; 255
    4526:	61 e0       	ldi	r22, 0x01	; 1
    4528:	c8 01       	movw	r24, r16
    452a:	0e 94 d0 20 	call	0x41a0	; 0x41a0 <u8x8_cad_SendData>
    452e:	c8 01       	movw	r24, r16
    4530:	0e 94 e3 20 	call	0x41c6	; 0x41c6 <u8x8_cad_EndTransfer>
    4534:	93 94       	inc	r9
    4536:	89 2d       	mov	r24, r9
    4538:	90 e0       	ldi	r25, 0x00	; 0
    453a:	8c 15       	cp	r24, r12
    453c:	9d 05       	cpc	r25, r13
    453e:	44 f3       	brlt	.-48     	; 0x4510 <u8x8_d_ise97002ks_gu128x64+0x1a0>
    4540:	8a 94       	dec	r8
    4542:	81 10       	cpse	r8, r1
    4544:	d8 cf       	rjmp	.-80     	; 0x44f6 <u8x8_d_ise97002ks_gu128x64+0x186>
    4546:	92 cf       	rjmp	.-220    	; 0x446c <u8x8_d_ise97002ks_gu128x64+0xfc>
    4548:	0e 94 d9 20 	call	0x41b2	; 0x41b2 <u8x8_cad_StartTransfer>
    454c:	68 2d       	mov	r22, r8
    454e:	60 95       	com	r22
    4550:	62 95       	swap	r22
    4552:	6f 70       	andi	r22, 0x0F	; 15
    4554:	60 64       	ori	r22, 0x40	; 64
    4556:	84 cf       	rjmp	.-248    	; 0x4460 <u8x8_d_ise97002ks_gu128x64+0xf0>
    4558:	6a e4       	ldi	r22, 0x4A	; 74
    455a:	71 e0       	ldi	r23, 0x01	; 1
    455c:	0e 94 2d 21 	call	0x425a	; 0x425a <u8x8_d_helper_display_setup_memory>
    4560:	81 e0       	ldi	r24, 0x01	; 1
    4562:	85 cf       	rjmp	.-246    	; 0x446e <u8x8_d_ise97002ks_gu128x64+0xfe>
    4564:	0e 94 d9 20 	call	0x41b2	; 0x41b2 <u8x8_cad_StartTransfer>
    4568:	64 e2       	ldi	r22, 0x24	; 36
    456a:	c8 01       	movw	r24, r16
    456c:	0e 94 c6 20 	call	0x418c	; 0x418c <u8x8_cad_SendCmd>
    4570:	c8 01       	movw	r24, r16
    4572:	0e 94 e3 20 	call	0x41c6	; 0x41c6 <u8x8_cad_EndTransfer>
    4576:	c8 01       	movw	r24, r16
    4578:	88 20       	and	r8, r8
    457a:	21 f0       	breq	.+8      	; 0x4584 <u8x8_d_ise97002ks_gu128x64+0x214>
    457c:	0e 94 d9 20 	call	0x41b2	; 0x41b2 <u8x8_cad_StartTransfer>
    4580:	60 e0       	ldi	r22, 0x00	; 0
    4582:	6e cf       	rjmp	.-292    	; 0x4460 <u8x8_d_ise97002ks_gu128x64+0xf0>
    4584:	0e 94 d9 20 	call	0x41b2	; 0x41b2 <u8x8_cad_StartTransfer>
    4588:	60 e4       	ldi	r22, 0x40	; 64
    458a:	6a cf       	rjmp	.-300    	; 0x4460 <u8x8_d_ise97002ks_gu128x64+0xf0>

0000458c <u8x8_gpio_call>:
    458c:	dc 01       	movw	r26, r24
    458e:	1a 96       	adiw	r26, 0x0a	; 10
    4590:	ed 91       	ld	r30, X+
    4592:	fc 91       	ld	r31, X
    4594:	1b 97       	sbiw	r26, 0x0b	; 11
    4596:	20 e0       	ldi	r18, 0x00	; 0
    4598:	30 e0       	ldi	r19, 0x00	; 0
    459a:	09 94       	ijmp

0000459c <u8x8_Setup>:
    459c:	0f 93       	push	r16
    459e:	1f 93       	push	r17
    45a0:	fc 01       	movw	r30, r24
    45a2:	11 82       	std	Z+1, r1	; 0x01
    45a4:	10 82       	st	Z, r1
    45a6:	15 8a       	std	Z+21, r1	; 0x15
    45a8:	10 8e       	std	Z+24, r1	; 0x18
    45aa:	14 86       	std	Z+12, r1	; 0x0c
    45ac:	15 86       	std	Z+13, r1	; 0x0d
    45ae:	16 86       	std	Z+14, r1	; 0x0e
    45b0:	17 86       	std	Z+15, r1	; 0x0f
    45b2:	8f ef       	ldi	r24, 0xFF	; 255
    45b4:	86 8b       	std	Z+22, r24	; 0x16
    45b6:	82 8f       	std	Z+26, r24	; 0x1a
    45b8:	75 83       	std	Z+5, r23	; 0x05
    45ba:	64 83       	std	Z+4, r22	; 0x04
    45bc:	57 83       	std	Z+7, r21	; 0x07
    45be:	46 83       	std	Z+6, r20	; 0x06
    45c0:	31 87       	std	Z+9, r19	; 0x09
    45c2:	20 87       	std	Z+8, r18	; 0x08
    45c4:	13 87       	std	Z+11, r17	; 0x0b
    45c6:	02 87       	std	Z+10, r16	; 0x0a
    45c8:	cf 01       	movw	r24, r30
    45ca:	1f 91       	pop	r17
    45cc:	0f 91       	pop	r16
    45ce:	0c 94 90 21 	jmp	0x4320	; 0x4320 <u8x8_SetupMemory>

000045d2 <u8x8_byte_avr_hw_spi>:
    45d2:	0f 93       	push	r16
    45d4:	1f 93       	push	r17
    45d6:	cf 93       	push	r28
    45d8:	df 93       	push	r29
    45da:	ec 01       	movw	r28, r24
    45dc:	68 31       	cpi	r22, 0x18	; 24
    45de:	09 f4       	brne	.+2      	; 0x45e2 <u8x8_byte_avr_hw_spi+0x10>
    45e0:	79 c0       	rjmp	.+242    	; 0x46d4 <u8x8_byte_avr_hw_spi+0x102>
    45e2:	a0 f4       	brcc	.+40     	; 0x460c <u8x8_byte_avr_hw_spi+0x3a>
    45e4:	64 31       	cpi	r22, 0x14	; 20
    45e6:	c1 f1       	breq	.+112    	; 0x4658 <u8x8_byte_avr_hw_spi+0x86>
    45e8:	67 31       	cpi	r22, 0x17	; 23
    45ea:	e9 f4       	brne	.+58     	; 0x4626 <u8x8_byte_avr_hw_spi+0x54>
    45ec:	44 23       	and	r20, r20
    45ee:	41 f0       	breq	.+16     	; 0x4600 <u8x8_byte_avr_hw_spi+0x2e>
    45f0:	f9 01       	movw	r30, r18
    45f2:	81 91       	ld	r24, Z+
    45f4:	8e bd       	out	0x2e, r24	; 46
    45f6:	0d b4       	in	r0, 0x2d	; 45
    45f8:	07 fe       	sbrs	r0, 7
    45fa:	fd cf       	rjmp	.-6      	; 0x45f6 <u8x8_byte_avr_hw_spi+0x24>
    45fc:	41 50       	subi	r20, 0x01	; 1
    45fe:	c9 f7       	brne	.-14     	; 0x45f2 <u8x8_byte_avr_hw_spi+0x20>
    4600:	81 e0       	ldi	r24, 0x01	; 1
    4602:	df 91       	pop	r29
    4604:	cf 91       	pop	r28
    4606:	1f 91       	pop	r17
    4608:	0f 91       	pop	r16
    460a:	08 95       	ret
    460c:	69 31       	cpi	r22, 0x19	; 25
    460e:	89 f0       	breq	.+34     	; 0x4632 <u8x8_byte_avr_hw_spi+0x60>
    4610:	60 32       	cpi	r22, 0x20	; 32
    4612:	49 f4       	brne	.+18     	; 0x4626 <u8x8_byte_avr_hw_spi+0x54>
    4614:	6a e4       	ldi	r22, 0x4A	; 74
    4616:	0e 94 c6 22 	call	0x458c	; 0x458c <u8x8_gpio_call>
    461a:	81 e0       	ldi	r24, 0x01	; 1
    461c:	df 91       	pop	r29
    461e:	cf 91       	pop	r28
    4620:	1f 91       	pop	r17
    4622:	0f 91       	pop	r16
    4624:	08 95       	ret
    4626:	80 e0       	ldi	r24, 0x00	; 0
    4628:	df 91       	pop	r29
    462a:	cf 91       	pop	r28
    462c:	1f 91       	pop	r17
    462e:	0f 91       	pop	r16
    4630:	08 95       	ret
    4632:	a8 81       	ld	r26, Y
    4634:	b9 81       	ldd	r27, Y+1	; 0x01
    4636:	ea 85       	ldd	r30, Y+10	; 0x0a
    4638:	fb 85       	ldd	r31, Y+11	; 0x0b
    463a:	20 e0       	ldi	r18, 0x00	; 0
    463c:	30 e0       	ldi	r19, 0x00	; 0
    463e:	13 96       	adiw	r26, 0x03	; 3
    4640:	4c 91       	ld	r20, X
    4642:	6c e2       	ldi	r22, 0x2C	; 44
    4644:	09 95       	icall
    4646:	e8 81       	ld	r30, Y
    4648:	f9 81       	ldd	r31, Y+1	; 0x01
    464a:	41 81       	ldd	r20, Z+1	; 0x01
    464c:	69 e4       	ldi	r22, 0x49	; 73
    464e:	ce 01       	movw	r24, r28
    4650:	0e 94 c6 22 	call	0x458c	; 0x458c <u8x8_gpio_call>
    4654:	81 e0       	ldi	r24, 0x01	; 1
    4656:	d5 cf       	rjmp	.-86     	; 0x4602 <u8x8_byte_avr_hw_spi+0x30>
    4658:	25 9a       	sbi	0x04, 5	; 4
    465a:	23 9a       	sbi	0x04, 3	; 4
    465c:	80 e5       	ldi	r24, 0x50	; 80
    465e:	8c bd       	out	0x2c, r24	; 44
    4660:	08 81       	ld	r16, Y
    4662:	19 81       	ldd	r17, Y+1	; 0x01
    4664:	f8 01       	movw	r30, r16
    4666:	84 85       	ldd	r24, Z+12	; 0x0c
    4668:	82 30       	cpi	r24, 0x02	; 2
    466a:	09 f4       	brne	.+2      	; 0x466e <u8x8_byte_avr_hw_spi+0x9c>
    466c:	78 c0       	rjmp	.+240    	; 0x475e <u8x8_byte_avr_hw_spi+0x18c>
    466e:	83 30       	cpi	r24, 0x03	; 3
    4670:	09 f4       	brne	.+2      	; 0x4674 <u8x8_byte_avr_hw_spi+0xa2>
    4672:	47 c0       	rjmp	.+142    	; 0x4702 <u8x8_byte_avr_hw_spi+0x130>
    4674:	81 30       	cpi	r24, 0x01	; 1
    4676:	09 f4       	brne	.+2      	; 0x467a <u8x8_byte_avr_hw_spi+0xa8>
    4678:	47 c0       	rjmp	.+142    	; 0x4708 <u8x8_byte_avr_hw_spi+0x136>
    467a:	f8 01       	movw	r30, r16
    467c:	20 85       	ldd	r18, Z+8	; 0x08
    467e:	31 85       	ldd	r19, Z+9	; 0x09
    4680:	42 85       	ldd	r20, Z+10	; 0x0a
    4682:	53 85       	ldd	r21, Z+11	; 0x0b
    4684:	60 e0       	ldi	r22, 0x00	; 0
    4686:	74 e2       	ldi	r23, 0x24	; 36
    4688:	84 ef       	ldi	r24, 0xF4	; 244
    468a:	90 e0       	ldi	r25, 0x00	; 0
    468c:	0e 94 28 24 	call	0x4850	; 0x4850 <__udivmodsi4>
    4690:	20 31       	cpi	r18, 0x10	; 16
    4692:	31 05       	cpc	r19, r1
    4694:	41 05       	cpc	r20, r1
    4696:	51 05       	cpc	r21, r1
    4698:	09 f4       	brne	.+2      	; 0x469c <u8x8_byte_avr_hw_spi+0xca>
    469a:	53 c0       	rjmp	.+166    	; 0x4742 <u8x8_byte_avr_hw_spi+0x170>
    469c:	d8 f1       	brcs	.+118    	; 0x4714 <u8x8_byte_avr_hw_spi+0x142>
    469e:	20 34       	cpi	r18, 0x40	; 64
    46a0:	31 05       	cpc	r19, r1
    46a2:	41 05       	cpc	r20, r1
    46a4:	51 05       	cpc	r21, r1
    46a6:	09 f4       	brne	.+2      	; 0x46aa <u8x8_byte_avr_hw_spi+0xd8>
    46a8:	60 c0       	rjmp	.+192    	; 0x476a <u8x8_byte_avr_hw_spi+0x198>
    46aa:	20 38       	cpi	r18, 0x80	; 128
    46ac:	31 05       	cpc	r19, r1
    46ae:	41 05       	cpc	r20, r1
    46b0:	51 05       	cpc	r21, r1
    46b2:	09 f4       	brne	.+2      	; 0x46b6 <u8x8_byte_avr_hw_spi+0xe4>
    46b4:	43 c0       	rjmp	.+134    	; 0x473c <u8x8_byte_avr_hw_spi+0x16a>
    46b6:	20 32       	cpi	r18, 0x20	; 32
    46b8:	31 05       	cpc	r19, r1
    46ba:	41 05       	cpc	r20, r1
    46bc:	51 05       	cpc	r21, r1
    46be:	41 f4       	brne	.+16     	; 0x46d0 <u8x8_byte_avr_hw_spi+0xfe>
    46c0:	8d b5       	in	r24, 0x2d	; 45
    46c2:	81 60       	ori	r24, 0x01	; 1
    46c4:	8d bd       	out	0x2d, r24	; 45
    46c6:	8c b5       	in	r24, 0x2c	; 44
    46c8:	82 60       	ori	r24, 0x02	; 2
    46ca:	8c bd       	out	0x2c, r24	; 44
    46cc:	08 81       	ld	r16, Y
    46ce:	19 81       	ldd	r17, Y+1	; 0x01
    46d0:	f8 01       	movw	r30, r16
    46d2:	bb cf       	rjmp	.-138    	; 0x464a <u8x8_byte_avr_hw_spi+0x78>
    46d4:	e8 81       	ld	r30, Y
    46d6:	f9 81       	ldd	r31, Y+1	; 0x01
    46d8:	40 81       	ld	r20, Z
    46da:	69 e4       	ldi	r22, 0x49	; 73
    46dc:	0e 94 c6 22 	call	0x458c	; 0x458c <u8x8_gpio_call>
    46e0:	a8 81       	ld	r26, Y
    46e2:	b9 81       	ldd	r27, Y+1	; 0x01
    46e4:	ea 85       	ldd	r30, Y+10	; 0x0a
    46e6:	fb 85       	ldd	r31, Y+11	; 0x0b
    46e8:	20 e0       	ldi	r18, 0x00	; 0
    46ea:	30 e0       	ldi	r19, 0x00	; 0
    46ec:	12 96       	adiw	r26, 0x02	; 2
    46ee:	4c 91       	ld	r20, X
    46f0:	6c e2       	ldi	r22, 0x2C	; 44
    46f2:	ce 01       	movw	r24, r28
    46f4:	09 95       	icall
    46f6:	81 e0       	ldi	r24, 0x01	; 1
    46f8:	df 91       	pop	r29
    46fa:	cf 91       	pop	r28
    46fc:	1f 91       	pop	r17
    46fe:	0f 91       	pop	r16
    4700:	08 95       	ret
    4702:	8c b5       	in	r24, 0x2c	; 44
    4704:	88 60       	ori	r24, 0x08	; 8
    4706:	8c bd       	out	0x2c, r24	; 44
    4708:	8c b5       	in	r24, 0x2c	; 44
    470a:	84 60       	ori	r24, 0x04	; 4
    470c:	8c bd       	out	0x2c, r24	; 44
    470e:	08 81       	ld	r16, Y
    4710:	19 81       	ldd	r17, Y+1	; 0x01
    4712:	b3 cf       	rjmp	.-154    	; 0x467a <u8x8_byte_avr_hw_spi+0xa8>
    4714:	22 30       	cpi	r18, 0x02	; 2
    4716:	31 05       	cpc	r19, r1
    4718:	41 05       	cpc	r20, r1
    471a:	51 05       	cpc	r21, r1
    471c:	c9 f0       	breq	.+50     	; 0x4750 <u8x8_byte_avr_hw_spi+0x17e>
    471e:	28 30       	cpi	r18, 0x08	; 8
    4720:	31 05       	cpc	r19, r1
    4722:	41 05       	cpc	r20, r1
    4724:	51 05       	cpc	r21, r1
    4726:	a1 f6       	brne	.-88     	; 0x46d0 <u8x8_byte_avr_hw_spi+0xfe>
    4728:	8d b5       	in	r24, 0x2d	; 45
    472a:	81 60       	ori	r24, 0x01	; 1
    472c:	8d bd       	out	0x2d, r24	; 45
    472e:	8c b5       	in	r24, 0x2c	; 44
    4730:	81 60       	ori	r24, 0x01	; 1
    4732:	8c bd       	out	0x2c, r24	; 44
    4734:	08 81       	ld	r16, Y
    4736:	19 81       	ldd	r17, Y+1	; 0x01
    4738:	f8 01       	movw	r30, r16
    473a:	87 cf       	rjmp	.-242    	; 0x464a <u8x8_byte_avr_hw_spi+0x78>
    473c:	8c b5       	in	r24, 0x2c	; 44
    473e:	82 60       	ori	r24, 0x02	; 2
    4740:	8c bd       	out	0x2c, r24	; 44
    4742:	8c b5       	in	r24, 0x2c	; 44
    4744:	81 60       	ori	r24, 0x01	; 1
    4746:	8c bd       	out	0x2c, r24	; 44
    4748:	08 81       	ld	r16, Y
    474a:	19 81       	ldd	r17, Y+1	; 0x01
    474c:	f8 01       	movw	r30, r16
    474e:	7d cf       	rjmp	.-262    	; 0x464a <u8x8_byte_avr_hw_spi+0x78>
    4750:	8d b5       	in	r24, 0x2d	; 45
    4752:	81 60       	ori	r24, 0x01	; 1
    4754:	8d bd       	out	0x2d, r24	; 45
    4756:	08 81       	ld	r16, Y
    4758:	19 81       	ldd	r17, Y+1	; 0x01
    475a:	f8 01       	movw	r30, r16
    475c:	76 cf       	rjmp	.-276    	; 0x464a <u8x8_byte_avr_hw_spi+0x78>
    475e:	8c b5       	in	r24, 0x2c	; 44
    4760:	88 60       	ori	r24, 0x08	; 8
    4762:	8c bd       	out	0x2c, r24	; 44
    4764:	08 81       	ld	r16, Y
    4766:	19 81       	ldd	r17, Y+1	; 0x01
    4768:	88 cf       	rjmp	.-240    	; 0x467a <u8x8_byte_avr_hw_spi+0xa8>
    476a:	8c b5       	in	r24, 0x2c	; 44
    476c:	82 60       	ori	r24, 0x02	; 2
    476e:	8c bd       	out	0x2c, r24	; 44
    4770:	08 81       	ld	r16, Y
    4772:	19 81       	ldd	r17, Y+1	; 0x01
    4774:	f8 01       	movw	r30, r16
    4776:	69 cf       	rjmp	.-302    	; 0x464a <u8x8_byte_avr_hw_spi+0x78>

00004778 <u8x8_gpio_and_delay>:
    4778:	6a 32       	cpi	r22, 0x2A	; 42
    477a:	61 f0       	breq	.+24     	; 0x4794 <u8x8_gpio_and_delay+0x1c>
    477c:	68 f1       	brcs	.+90     	; 0x47d8 <u8x8_gpio_and_delay+0x60>
    477e:	6b 32       	cpi	r22, 0x2B	; 43
    4780:	69 f0       	breq	.+26     	; 0x479c <u8x8_gpio_and_delay+0x24>
    4782:	6c 32       	cpi	r22, 0x2C	; 44
    4784:	f1 f4       	brne	.+60     	; 0x47c2 <u8x8_gpio_and_delay+0x4a>
    4786:	81 e0       	ldi	r24, 0x01	; 1
    4788:	08 95       	ret
    478a:	85 e3       	ldi	r24, 0x35	; 53
    478c:	8a 95       	dec	r24
    478e:	f1 f7       	brne	.-4      	; 0x478c <u8x8_gpio_and_delay+0x14>
    4790:	00 00       	nop
    4792:	41 50       	subi	r20, 0x01	; 1
    4794:	41 11       	cpse	r20, r1
    4796:	f9 cf       	rjmp	.-14     	; 0x478a <u8x8_gpio_and_delay+0x12>
    4798:	81 e0       	ldi	r24, 0x01	; 1
    479a:	08 95       	ret
    479c:	24 2f       	mov	r18, r20
    479e:	30 e0       	ldi	r19, 0x00	; 0
    47a0:	a4 e6       	ldi	r26, 0x64	; 100
    47a2:	b0 e0       	ldi	r27, 0x00	; 0
    47a4:	0e 94 69 24 	call	0x48d2	; 0x48d2 <__umulhisi3>
    47a8:	28 ef       	ldi	r18, 0xF8	; 248
    47aa:	30 e0       	ldi	r19, 0x00	; 0
    47ac:	40 e0       	ldi	r20, 0x00	; 0
    47ae:	50 e0       	ldi	r21, 0x00	; 0
    47b0:	0e 94 28 24 	call	0x4850	; 0x4850 <__udivmodsi4>
    47b4:	23 32       	cpi	r18, 0x23	; 35
    47b6:	38 f7       	brcc	.-50     	; 0x4786 <u8x8_gpio_and_delay+0xe>
    47b8:	82 2f       	mov	r24, r18
    47ba:	01 97       	sbiw	r24, 0x01	; 1
    47bc:	f1 f7       	brne	.-4      	; 0x47ba <u8x8_gpio_and_delay+0x42>
    47be:	81 e0       	ldi	r24, 0x01	; 1
    47c0:	08 95       	ret
    47c2:	69 34       	cpi	r22, 0x49	; 73
    47c4:	39 f1       	breq	.+78     	; 0x4814 <u8x8_gpio_and_delay+0x9c>
    47c6:	d0 f0       	brcs	.+52     	; 0x47fc <u8x8_gpio_and_delay+0x84>
    47c8:	6a 34       	cpi	r22, 0x4A	; 74
    47ca:	a1 f0       	breq	.+40     	; 0x47f4 <u8x8_gpio_and_delay+0x7c>
    47cc:	6b 34       	cpi	r22, 0x4B	; 75
    47ce:	e9 f4       	brne	.+58     	; 0x480a <u8x8_gpio_and_delay+0x92>
    47d0:	44 23       	and	r20, r20
    47d2:	21 f1       	breq	.+72     	; 0x481c <u8x8_gpio_and_delay+0xa4>
    47d4:	28 9a       	sbi	0x05, 0	; 5
    47d6:	d7 cf       	rjmp	.-82     	; 0x4786 <u8x8_gpio_and_delay+0xe>
    47d8:	69 32       	cpi	r22, 0x29	; 41
    47da:	41 f0       	breq	.+16     	; 0x47ec <u8x8_gpio_and_delay+0x74>
    47dc:	f2 cf       	rjmp	.-28     	; 0x47c2 <u8x8_gpio_and_delay+0x4a>
    47de:	ef e9       	ldi	r30, 0x9F	; 159
    47e0:	ff e0       	ldi	r31, 0x0F	; 15
    47e2:	31 97       	sbiw	r30, 0x01	; 1
    47e4:	f1 f7       	brne	.-4      	; 0x47e2 <u8x8_gpio_and_delay+0x6a>
    47e6:	00 c0       	rjmp	.+0      	; 0x47e8 <u8x8_gpio_and_delay+0x70>
    47e8:	00 00       	nop
    47ea:	41 50       	subi	r20, 0x01	; 1
    47ec:	41 11       	cpse	r20, r1
    47ee:	f7 cf       	rjmp	.-18     	; 0x47de <u8x8_gpio_and_delay+0x66>
    47f0:	81 e0       	ldi	r24, 0x01	; 1
    47f2:	08 95       	ret
    47f4:	44 23       	and	r20, r20
    47f6:	a1 f0       	breq	.+40     	; 0x4820 <u8x8_gpio_and_delay+0xa8>
    47f8:	29 9a       	sbi	0x05, 1	; 5
    47fa:	c5 cf       	rjmp	.-118    	; 0x4786 <u8x8_gpio_and_delay+0xe>
    47fc:	68 32       	cpi	r22, 0x28	; 40
    47fe:	29 f4       	brne	.+10     	; 0x480a <u8x8_gpio_and_delay+0x92>
    4800:	22 9a       	sbi	0x04, 2	; 4
    4802:	21 9a       	sbi	0x04, 1	; 4
    4804:	20 9a       	sbi	0x04, 0	; 4
    4806:	81 e0       	ldi	r24, 0x01	; 1
    4808:	08 95       	ret
    480a:	21 e0       	ldi	r18, 0x01	; 1
    480c:	fc 01       	movw	r30, r24
    480e:	21 8f       	std	Z+25, r18	; 0x19
    4810:	81 e0       	ldi	r24, 0x01	; 1
    4812:	08 95       	ret
    4814:	44 23       	and	r20, r20
    4816:	31 f0       	breq	.+12     	; 0x4824 <u8x8_gpio_and_delay+0xac>
    4818:	2a 9a       	sbi	0x05, 2	; 5
    481a:	b5 cf       	rjmp	.-150    	; 0x4786 <u8x8_gpio_and_delay+0xe>
    481c:	28 98       	cbi	0x05, 0	; 5
    481e:	b3 cf       	rjmp	.-154    	; 0x4786 <u8x8_gpio_and_delay+0xe>
    4820:	29 98       	cbi	0x05, 1	; 5
    4822:	b1 cf       	rjmp	.-158    	; 0x4786 <u8x8_gpio_and_delay+0xe>
    4824:	2a 98       	cbi	0x05, 2	; 5
    4826:	af cf       	rjmp	.-162    	; 0x4786 <u8x8_gpio_and_delay+0xe>

00004828 <__udivmodhi4>:
    4828:	aa 1b       	sub	r26, r26
    482a:	bb 1b       	sub	r27, r27
    482c:	51 e1       	ldi	r21, 0x11	; 17
    482e:	07 c0       	rjmp	.+14     	; 0x483e <__udivmodhi4_ep>

00004830 <__udivmodhi4_loop>:
    4830:	aa 1f       	adc	r26, r26
    4832:	bb 1f       	adc	r27, r27
    4834:	a6 17       	cp	r26, r22
    4836:	b7 07       	cpc	r27, r23
    4838:	10 f0       	brcs	.+4      	; 0x483e <__udivmodhi4_ep>
    483a:	a6 1b       	sub	r26, r22
    483c:	b7 0b       	sbc	r27, r23

0000483e <__udivmodhi4_ep>:
    483e:	88 1f       	adc	r24, r24
    4840:	99 1f       	adc	r25, r25
    4842:	5a 95       	dec	r21
    4844:	a9 f7       	brne	.-22     	; 0x4830 <__udivmodhi4_loop>
    4846:	80 95       	com	r24
    4848:	90 95       	com	r25
    484a:	bc 01       	movw	r22, r24
    484c:	cd 01       	movw	r24, r26
    484e:	08 95       	ret

00004850 <__udivmodsi4>:
    4850:	a1 e2       	ldi	r26, 0x21	; 33
    4852:	1a 2e       	mov	r1, r26
    4854:	aa 1b       	sub	r26, r26
    4856:	bb 1b       	sub	r27, r27
    4858:	fd 01       	movw	r30, r26
    485a:	0d c0       	rjmp	.+26     	; 0x4876 <__udivmodsi4_ep>

0000485c <__udivmodsi4_loop>:
    485c:	aa 1f       	adc	r26, r26
    485e:	bb 1f       	adc	r27, r27
    4860:	ee 1f       	adc	r30, r30
    4862:	ff 1f       	adc	r31, r31
    4864:	a2 17       	cp	r26, r18
    4866:	b3 07       	cpc	r27, r19
    4868:	e4 07       	cpc	r30, r20
    486a:	f5 07       	cpc	r31, r21
    486c:	20 f0       	brcs	.+8      	; 0x4876 <__udivmodsi4_ep>
    486e:	a2 1b       	sub	r26, r18
    4870:	b3 0b       	sbc	r27, r19
    4872:	e4 0b       	sbc	r30, r20
    4874:	f5 0b       	sbc	r31, r21

00004876 <__udivmodsi4_ep>:
    4876:	66 1f       	adc	r22, r22
    4878:	77 1f       	adc	r23, r23
    487a:	88 1f       	adc	r24, r24
    487c:	99 1f       	adc	r25, r25
    487e:	1a 94       	dec	r1
    4880:	69 f7       	brne	.-38     	; 0x485c <__udivmodsi4_loop>
    4882:	60 95       	com	r22
    4884:	70 95       	com	r23
    4886:	80 95       	com	r24
    4888:	90 95       	com	r25
    488a:	9b 01       	movw	r18, r22
    488c:	ac 01       	movw	r20, r24
    488e:	bd 01       	movw	r22, r26
    4890:	cf 01       	movw	r24, r30
    4892:	08 95       	ret

00004894 <__divmodsi4>:
    4894:	05 2e       	mov	r0, r21
    4896:	97 fb       	bst	r25, 7
    4898:	1e f4       	brtc	.+6      	; 0x48a0 <__divmodsi4+0xc>
    489a:	00 94       	com	r0
    489c:	0e 94 61 24 	call	0x48c2	; 0x48c2 <__negsi2>
    48a0:	57 fd       	sbrc	r21, 7
    48a2:	07 d0       	rcall	.+14     	; 0x48b2 <__divmodsi4_neg2>
    48a4:	0e 94 28 24 	call	0x4850	; 0x4850 <__udivmodsi4>
    48a8:	07 fc       	sbrc	r0, 7
    48aa:	03 d0       	rcall	.+6      	; 0x48b2 <__divmodsi4_neg2>
    48ac:	4e f4       	brtc	.+18     	; 0x48c0 <__divmodsi4_exit>
    48ae:	0c 94 61 24 	jmp	0x48c2	; 0x48c2 <__negsi2>

000048b2 <__divmodsi4_neg2>:
    48b2:	50 95       	com	r21
    48b4:	40 95       	com	r20
    48b6:	30 95       	com	r19
    48b8:	21 95       	neg	r18
    48ba:	3f 4f       	sbci	r19, 0xFF	; 255
    48bc:	4f 4f       	sbci	r20, 0xFF	; 255
    48be:	5f 4f       	sbci	r21, 0xFF	; 255

000048c0 <__divmodsi4_exit>:
    48c0:	08 95       	ret

000048c2 <__negsi2>:
    48c2:	90 95       	com	r25
    48c4:	80 95       	com	r24
    48c6:	70 95       	com	r23
    48c8:	61 95       	neg	r22
    48ca:	7f 4f       	sbci	r23, 0xFF	; 255
    48cc:	8f 4f       	sbci	r24, 0xFF	; 255
    48ce:	9f 4f       	sbci	r25, 0xFF	; 255
    48d0:	08 95       	ret

000048d2 <__umulhisi3>:
    48d2:	a2 9f       	mul	r26, r18
    48d4:	b0 01       	movw	r22, r0
    48d6:	b3 9f       	mul	r27, r19
    48d8:	c0 01       	movw	r24, r0
    48da:	a3 9f       	mul	r26, r19
    48dc:	70 0d       	add	r23, r0
    48de:	81 1d       	adc	r24, r1
    48e0:	11 24       	eor	r1, r1
    48e2:	91 1d       	adc	r25, r1
    48e4:	b2 9f       	mul	r27, r18
    48e6:	70 0d       	add	r23, r0
    48e8:	81 1d       	adc	r24, r1
    48ea:	11 24       	eor	r1, r1
    48ec:	91 1d       	adc	r25, r1
    48ee:	08 95       	ret

000048f0 <memcpy>:
    48f0:	fb 01       	movw	r30, r22
    48f2:	dc 01       	movw	r26, r24
    48f4:	02 c0       	rjmp	.+4      	; 0x48fa <memcpy+0xa>
    48f6:	01 90       	ld	r0, Z+
    48f8:	0d 92       	st	X+, r0
    48fa:	41 50       	subi	r20, 0x01	; 1
    48fc:	50 40       	sbci	r21, 0x00	; 0
    48fe:	d8 f7       	brcc	.-10     	; 0x48f6 <memcpy+0x6>
    4900:	08 95       	ret

00004902 <memset>:
    4902:	dc 01       	movw	r26, r24
    4904:	01 c0       	rjmp	.+2      	; 0x4908 <memset+0x6>
    4906:	6d 93       	st	X+, r22
    4908:	41 50       	subi	r20, 0x01	; 1
    490a:	50 40       	sbci	r21, 0x00	; 0
    490c:	e0 f7       	brcc	.-8      	; 0x4906 <memset+0x4>
    490e:	08 95       	ret

00004910 <snprintf>:
    4910:	ae e0       	ldi	r26, 0x0E	; 14
    4912:	b0 e0       	ldi	r27, 0x00	; 0
    4914:	ee e8       	ldi	r30, 0x8E	; 142
    4916:	f4 e2       	ldi	r31, 0x24	; 36
    4918:	0c 94 57 27 	jmp	0x4eae	; 0x4eae <__prologue_saves__+0x1c>
    491c:	0d 89       	ldd	r16, Y+21	; 0x15
    491e:	1e 89       	ldd	r17, Y+22	; 0x16
    4920:	8f 89       	ldd	r24, Y+23	; 0x17
    4922:	98 8d       	ldd	r25, Y+24	; 0x18
    4924:	26 e0       	ldi	r18, 0x06	; 6
    4926:	2c 83       	std	Y+4, r18	; 0x04
    4928:	1a 83       	std	Y+2, r17	; 0x02
    492a:	09 83       	std	Y+1, r16	; 0x01
    492c:	97 ff       	sbrs	r25, 7
    492e:	02 c0       	rjmp	.+4      	; 0x4934 <snprintf+0x24>
    4930:	80 e0       	ldi	r24, 0x00	; 0
    4932:	90 e8       	ldi	r25, 0x80	; 128
    4934:	01 97       	sbiw	r24, 0x01	; 1
    4936:	9e 83       	std	Y+6, r25	; 0x06
    4938:	8d 83       	std	Y+5, r24	; 0x05
    493a:	ae 01       	movw	r20, r28
    493c:	45 5e       	subi	r20, 0xE5	; 229
    493e:	5f 4f       	sbci	r21, 0xFF	; 255
    4940:	69 8d       	ldd	r22, Y+25	; 0x19
    4942:	7a 8d       	ldd	r23, Y+26	; 0x1a
    4944:	ce 01       	movw	r24, r28
    4946:	01 96       	adiw	r24, 0x01	; 1
    4948:	0e 94 b8 24 	call	0x4970	; 0x4970 <vfprintf>
    494c:	4d 81       	ldd	r20, Y+5	; 0x05
    494e:	5e 81       	ldd	r21, Y+6	; 0x06
    4950:	57 fd       	sbrc	r21, 7
    4952:	0a c0       	rjmp	.+20     	; 0x4968 <snprintf+0x58>
    4954:	2f 81       	ldd	r18, Y+7	; 0x07
    4956:	38 85       	ldd	r19, Y+8	; 0x08
    4958:	42 17       	cp	r20, r18
    495a:	53 07       	cpc	r21, r19
    495c:	0c f4       	brge	.+2      	; 0x4960 <snprintf+0x50>
    495e:	9a 01       	movw	r18, r20
    4960:	f8 01       	movw	r30, r16
    4962:	e2 0f       	add	r30, r18
    4964:	f3 1f       	adc	r31, r19
    4966:	10 82       	st	Z, r1
    4968:	2e 96       	adiw	r28, 0x0e	; 14
    496a:	e4 e0       	ldi	r30, 0x04	; 4
    496c:	0c 94 73 27 	jmp	0x4ee6	; 0x4ee6 <__epilogue_restores__+0x1c>

00004970 <vfprintf>:
    4970:	ab e0       	ldi	r26, 0x0B	; 11
    4972:	b0 e0       	ldi	r27, 0x00	; 0
    4974:	ee eb       	ldi	r30, 0xBE	; 190
    4976:	f4 e2       	ldi	r31, 0x24	; 36
    4978:	0c 94 49 27 	jmp	0x4e92	; 0x4e92 <__prologue_saves__>
    497c:	6c 01       	movw	r12, r24
    497e:	7b 01       	movw	r14, r22
    4980:	8a 01       	movw	r16, r20
    4982:	fc 01       	movw	r30, r24
    4984:	17 82       	std	Z+7, r1	; 0x07
    4986:	16 82       	std	Z+6, r1	; 0x06
    4988:	83 81       	ldd	r24, Z+3	; 0x03
    498a:	81 ff       	sbrs	r24, 1
    498c:	cc c1       	rjmp	.+920    	; 0x4d26 <vfprintf+0x3b6>
    498e:	ce 01       	movw	r24, r28
    4990:	01 96       	adiw	r24, 0x01	; 1
    4992:	3c 01       	movw	r6, r24
    4994:	f6 01       	movw	r30, r12
    4996:	93 81       	ldd	r25, Z+3	; 0x03
    4998:	f7 01       	movw	r30, r14
    499a:	93 fd       	sbrc	r25, 3
    499c:	85 91       	lpm	r24, Z+
    499e:	93 ff       	sbrs	r25, 3
    49a0:	81 91       	ld	r24, Z+
    49a2:	7f 01       	movw	r14, r30
    49a4:	88 23       	and	r24, r24
    49a6:	09 f4       	brne	.+2      	; 0x49aa <vfprintf+0x3a>
    49a8:	ba c1       	rjmp	.+884    	; 0x4d1e <vfprintf+0x3ae>
    49aa:	85 32       	cpi	r24, 0x25	; 37
    49ac:	39 f4       	brne	.+14     	; 0x49bc <vfprintf+0x4c>
    49ae:	93 fd       	sbrc	r25, 3
    49b0:	85 91       	lpm	r24, Z+
    49b2:	93 ff       	sbrs	r25, 3
    49b4:	81 91       	ld	r24, Z+
    49b6:	7f 01       	movw	r14, r30
    49b8:	85 32       	cpi	r24, 0x25	; 37
    49ba:	29 f4       	brne	.+10     	; 0x49c6 <vfprintf+0x56>
    49bc:	b6 01       	movw	r22, r12
    49be:	90 e0       	ldi	r25, 0x00	; 0
    49c0:	0e 94 af 26 	call	0x4d5e	; 0x4d5e <fputc>
    49c4:	e7 cf       	rjmp	.-50     	; 0x4994 <vfprintf+0x24>
    49c6:	91 2c       	mov	r9, r1
    49c8:	21 2c       	mov	r2, r1
    49ca:	31 2c       	mov	r3, r1
    49cc:	ff e1       	ldi	r31, 0x1F	; 31
    49ce:	f3 15       	cp	r31, r3
    49d0:	d8 f0       	brcs	.+54     	; 0x4a08 <vfprintf+0x98>
    49d2:	8b 32       	cpi	r24, 0x2B	; 43
    49d4:	79 f0       	breq	.+30     	; 0x49f4 <vfprintf+0x84>
    49d6:	38 f4       	brcc	.+14     	; 0x49e6 <vfprintf+0x76>
    49d8:	80 32       	cpi	r24, 0x20	; 32
    49da:	79 f0       	breq	.+30     	; 0x49fa <vfprintf+0x8a>
    49dc:	83 32       	cpi	r24, 0x23	; 35
    49de:	a1 f4       	brne	.+40     	; 0x4a08 <vfprintf+0x98>
    49e0:	23 2d       	mov	r18, r3
    49e2:	20 61       	ori	r18, 0x10	; 16
    49e4:	1d c0       	rjmp	.+58     	; 0x4a20 <vfprintf+0xb0>
    49e6:	8d 32       	cpi	r24, 0x2D	; 45
    49e8:	61 f0       	breq	.+24     	; 0x4a02 <vfprintf+0x92>
    49ea:	80 33       	cpi	r24, 0x30	; 48
    49ec:	69 f4       	brne	.+26     	; 0x4a08 <vfprintf+0x98>
    49ee:	23 2d       	mov	r18, r3
    49f0:	21 60       	ori	r18, 0x01	; 1
    49f2:	16 c0       	rjmp	.+44     	; 0x4a20 <vfprintf+0xb0>
    49f4:	83 2d       	mov	r24, r3
    49f6:	82 60       	ori	r24, 0x02	; 2
    49f8:	38 2e       	mov	r3, r24
    49fa:	e3 2d       	mov	r30, r3
    49fc:	e4 60       	ori	r30, 0x04	; 4
    49fe:	3e 2e       	mov	r3, r30
    4a00:	2a c0       	rjmp	.+84     	; 0x4a56 <vfprintf+0xe6>
    4a02:	f3 2d       	mov	r31, r3
    4a04:	f8 60       	ori	r31, 0x08	; 8
    4a06:	1d c0       	rjmp	.+58     	; 0x4a42 <vfprintf+0xd2>
    4a08:	37 fc       	sbrc	r3, 7
    4a0a:	2d c0       	rjmp	.+90     	; 0x4a66 <vfprintf+0xf6>
    4a0c:	20 ed       	ldi	r18, 0xD0	; 208
    4a0e:	28 0f       	add	r18, r24
    4a10:	2a 30       	cpi	r18, 0x0A	; 10
    4a12:	40 f0       	brcs	.+16     	; 0x4a24 <vfprintf+0xb4>
    4a14:	8e 32       	cpi	r24, 0x2E	; 46
    4a16:	b9 f4       	brne	.+46     	; 0x4a46 <vfprintf+0xd6>
    4a18:	36 fc       	sbrc	r3, 6
    4a1a:	81 c1       	rjmp	.+770    	; 0x4d1e <vfprintf+0x3ae>
    4a1c:	23 2d       	mov	r18, r3
    4a1e:	20 64       	ori	r18, 0x40	; 64
    4a20:	32 2e       	mov	r3, r18
    4a22:	19 c0       	rjmp	.+50     	; 0x4a56 <vfprintf+0xe6>
    4a24:	36 fe       	sbrs	r3, 6
    4a26:	06 c0       	rjmp	.+12     	; 0x4a34 <vfprintf+0xc4>
    4a28:	8a e0       	ldi	r24, 0x0A	; 10
    4a2a:	98 9e       	mul	r9, r24
    4a2c:	20 0d       	add	r18, r0
    4a2e:	11 24       	eor	r1, r1
    4a30:	92 2e       	mov	r9, r18
    4a32:	11 c0       	rjmp	.+34     	; 0x4a56 <vfprintf+0xe6>
    4a34:	ea e0       	ldi	r30, 0x0A	; 10
    4a36:	2e 9e       	mul	r2, r30
    4a38:	20 0d       	add	r18, r0
    4a3a:	11 24       	eor	r1, r1
    4a3c:	22 2e       	mov	r2, r18
    4a3e:	f3 2d       	mov	r31, r3
    4a40:	f0 62       	ori	r31, 0x20	; 32
    4a42:	3f 2e       	mov	r3, r31
    4a44:	08 c0       	rjmp	.+16     	; 0x4a56 <vfprintf+0xe6>
    4a46:	8c 36       	cpi	r24, 0x6C	; 108
    4a48:	21 f4       	brne	.+8      	; 0x4a52 <vfprintf+0xe2>
    4a4a:	83 2d       	mov	r24, r3
    4a4c:	80 68       	ori	r24, 0x80	; 128
    4a4e:	38 2e       	mov	r3, r24
    4a50:	02 c0       	rjmp	.+4      	; 0x4a56 <vfprintf+0xe6>
    4a52:	88 36       	cpi	r24, 0x68	; 104
    4a54:	41 f4       	brne	.+16     	; 0x4a66 <vfprintf+0xf6>
    4a56:	f7 01       	movw	r30, r14
    4a58:	93 fd       	sbrc	r25, 3
    4a5a:	85 91       	lpm	r24, Z+
    4a5c:	93 ff       	sbrs	r25, 3
    4a5e:	81 91       	ld	r24, Z+
    4a60:	7f 01       	movw	r14, r30
    4a62:	81 11       	cpse	r24, r1
    4a64:	b3 cf       	rjmp	.-154    	; 0x49cc <vfprintf+0x5c>
    4a66:	98 2f       	mov	r25, r24
    4a68:	9f 7d       	andi	r25, 0xDF	; 223
    4a6a:	95 54       	subi	r25, 0x45	; 69
    4a6c:	93 30       	cpi	r25, 0x03	; 3
    4a6e:	28 f4       	brcc	.+10     	; 0x4a7a <vfprintf+0x10a>
    4a70:	0c 5f       	subi	r16, 0xFC	; 252
    4a72:	1f 4f       	sbci	r17, 0xFF	; 255
    4a74:	9f e3       	ldi	r25, 0x3F	; 63
    4a76:	99 83       	std	Y+1, r25	; 0x01
    4a78:	0d c0       	rjmp	.+26     	; 0x4a94 <vfprintf+0x124>
    4a7a:	83 36       	cpi	r24, 0x63	; 99
    4a7c:	31 f0       	breq	.+12     	; 0x4a8a <vfprintf+0x11a>
    4a7e:	83 37       	cpi	r24, 0x73	; 115
    4a80:	71 f0       	breq	.+28     	; 0x4a9e <vfprintf+0x12e>
    4a82:	83 35       	cpi	r24, 0x53	; 83
    4a84:	09 f0       	breq	.+2      	; 0x4a88 <vfprintf+0x118>
    4a86:	59 c0       	rjmp	.+178    	; 0x4b3a <vfprintf+0x1ca>
    4a88:	21 c0       	rjmp	.+66     	; 0x4acc <vfprintf+0x15c>
    4a8a:	f8 01       	movw	r30, r16
    4a8c:	80 81       	ld	r24, Z
    4a8e:	89 83       	std	Y+1, r24	; 0x01
    4a90:	0e 5f       	subi	r16, 0xFE	; 254
    4a92:	1f 4f       	sbci	r17, 0xFF	; 255
    4a94:	88 24       	eor	r8, r8
    4a96:	83 94       	inc	r8
    4a98:	91 2c       	mov	r9, r1
    4a9a:	53 01       	movw	r10, r6
    4a9c:	13 c0       	rjmp	.+38     	; 0x4ac4 <vfprintf+0x154>
    4a9e:	28 01       	movw	r4, r16
    4aa0:	f2 e0       	ldi	r31, 0x02	; 2
    4aa2:	4f 0e       	add	r4, r31
    4aa4:	51 1c       	adc	r5, r1
    4aa6:	f8 01       	movw	r30, r16
    4aa8:	a0 80       	ld	r10, Z
    4aaa:	b1 80       	ldd	r11, Z+1	; 0x01
    4aac:	36 fe       	sbrs	r3, 6
    4aae:	03 c0       	rjmp	.+6      	; 0x4ab6 <vfprintf+0x146>
    4ab0:	69 2d       	mov	r22, r9
    4ab2:	70 e0       	ldi	r23, 0x00	; 0
    4ab4:	02 c0       	rjmp	.+4      	; 0x4aba <vfprintf+0x14a>
    4ab6:	6f ef       	ldi	r22, 0xFF	; 255
    4ab8:	7f ef       	ldi	r23, 0xFF	; 255
    4aba:	c5 01       	movw	r24, r10
    4abc:	0e 94 a4 26 	call	0x4d48	; 0x4d48 <strnlen>
    4ac0:	4c 01       	movw	r8, r24
    4ac2:	82 01       	movw	r16, r4
    4ac4:	f3 2d       	mov	r31, r3
    4ac6:	ff 77       	andi	r31, 0x7F	; 127
    4ac8:	3f 2e       	mov	r3, r31
    4aca:	16 c0       	rjmp	.+44     	; 0x4af8 <vfprintf+0x188>
    4acc:	28 01       	movw	r4, r16
    4ace:	22 e0       	ldi	r18, 0x02	; 2
    4ad0:	42 0e       	add	r4, r18
    4ad2:	51 1c       	adc	r5, r1
    4ad4:	f8 01       	movw	r30, r16
    4ad6:	a0 80       	ld	r10, Z
    4ad8:	b1 80       	ldd	r11, Z+1	; 0x01
    4ada:	36 fe       	sbrs	r3, 6
    4adc:	03 c0       	rjmp	.+6      	; 0x4ae4 <vfprintf+0x174>
    4ade:	69 2d       	mov	r22, r9
    4ae0:	70 e0       	ldi	r23, 0x00	; 0
    4ae2:	02 c0       	rjmp	.+4      	; 0x4ae8 <vfprintf+0x178>
    4ae4:	6f ef       	ldi	r22, 0xFF	; 255
    4ae6:	7f ef       	ldi	r23, 0xFF	; 255
    4ae8:	c5 01       	movw	r24, r10
    4aea:	0e 94 99 26 	call	0x4d32	; 0x4d32 <strnlen_P>
    4aee:	4c 01       	movw	r8, r24
    4af0:	f3 2d       	mov	r31, r3
    4af2:	f0 68       	ori	r31, 0x80	; 128
    4af4:	3f 2e       	mov	r3, r31
    4af6:	82 01       	movw	r16, r4
    4af8:	33 fc       	sbrc	r3, 3
    4afa:	1b c0       	rjmp	.+54     	; 0x4b32 <vfprintf+0x1c2>
    4afc:	82 2d       	mov	r24, r2
    4afe:	90 e0       	ldi	r25, 0x00	; 0
    4b00:	88 16       	cp	r8, r24
    4b02:	99 06       	cpc	r9, r25
    4b04:	b0 f4       	brcc	.+44     	; 0x4b32 <vfprintf+0x1c2>
    4b06:	b6 01       	movw	r22, r12
    4b08:	80 e2       	ldi	r24, 0x20	; 32
    4b0a:	90 e0       	ldi	r25, 0x00	; 0
    4b0c:	0e 94 af 26 	call	0x4d5e	; 0x4d5e <fputc>
    4b10:	2a 94       	dec	r2
    4b12:	f4 cf       	rjmp	.-24     	; 0x4afc <vfprintf+0x18c>
    4b14:	f5 01       	movw	r30, r10
    4b16:	37 fc       	sbrc	r3, 7
    4b18:	85 91       	lpm	r24, Z+
    4b1a:	37 fe       	sbrs	r3, 7
    4b1c:	81 91       	ld	r24, Z+
    4b1e:	5f 01       	movw	r10, r30
    4b20:	b6 01       	movw	r22, r12
    4b22:	90 e0       	ldi	r25, 0x00	; 0
    4b24:	0e 94 af 26 	call	0x4d5e	; 0x4d5e <fputc>
    4b28:	21 10       	cpse	r2, r1
    4b2a:	2a 94       	dec	r2
    4b2c:	21 e0       	ldi	r18, 0x01	; 1
    4b2e:	82 1a       	sub	r8, r18
    4b30:	91 08       	sbc	r9, r1
    4b32:	81 14       	cp	r8, r1
    4b34:	91 04       	cpc	r9, r1
    4b36:	71 f7       	brne	.-36     	; 0x4b14 <vfprintf+0x1a4>
    4b38:	e8 c0       	rjmp	.+464    	; 0x4d0a <vfprintf+0x39a>
    4b3a:	84 36       	cpi	r24, 0x64	; 100
    4b3c:	11 f0       	breq	.+4      	; 0x4b42 <vfprintf+0x1d2>
    4b3e:	89 36       	cpi	r24, 0x69	; 105
    4b40:	41 f5       	brne	.+80     	; 0x4b92 <vfprintf+0x222>
    4b42:	f8 01       	movw	r30, r16
    4b44:	37 fe       	sbrs	r3, 7
    4b46:	07 c0       	rjmp	.+14     	; 0x4b56 <vfprintf+0x1e6>
    4b48:	60 81       	ld	r22, Z
    4b4a:	71 81       	ldd	r23, Z+1	; 0x01
    4b4c:	82 81       	ldd	r24, Z+2	; 0x02
    4b4e:	93 81       	ldd	r25, Z+3	; 0x03
    4b50:	0c 5f       	subi	r16, 0xFC	; 252
    4b52:	1f 4f       	sbci	r17, 0xFF	; 255
    4b54:	08 c0       	rjmp	.+16     	; 0x4b66 <vfprintf+0x1f6>
    4b56:	60 81       	ld	r22, Z
    4b58:	71 81       	ldd	r23, Z+1	; 0x01
    4b5a:	07 2e       	mov	r0, r23
    4b5c:	00 0c       	add	r0, r0
    4b5e:	88 0b       	sbc	r24, r24
    4b60:	99 0b       	sbc	r25, r25
    4b62:	0e 5f       	subi	r16, 0xFE	; 254
    4b64:	1f 4f       	sbci	r17, 0xFF	; 255
    4b66:	f3 2d       	mov	r31, r3
    4b68:	ff 76       	andi	r31, 0x6F	; 111
    4b6a:	3f 2e       	mov	r3, r31
    4b6c:	97 ff       	sbrs	r25, 7
    4b6e:	09 c0       	rjmp	.+18     	; 0x4b82 <vfprintf+0x212>
    4b70:	90 95       	com	r25
    4b72:	80 95       	com	r24
    4b74:	70 95       	com	r23
    4b76:	61 95       	neg	r22
    4b78:	7f 4f       	sbci	r23, 0xFF	; 255
    4b7a:	8f 4f       	sbci	r24, 0xFF	; 255
    4b7c:	9f 4f       	sbci	r25, 0xFF	; 255
    4b7e:	f0 68       	ori	r31, 0x80	; 128
    4b80:	3f 2e       	mov	r3, r31
    4b82:	2a e0       	ldi	r18, 0x0A	; 10
    4b84:	30 e0       	ldi	r19, 0x00	; 0
    4b86:	a3 01       	movw	r20, r6
    4b88:	0e 94 eb 26 	call	0x4dd6	; 0x4dd6 <__ultoa_invert>
    4b8c:	88 2e       	mov	r8, r24
    4b8e:	86 18       	sub	r8, r6
    4b90:	45 c0       	rjmp	.+138    	; 0x4c1c <vfprintf+0x2ac>
    4b92:	85 37       	cpi	r24, 0x75	; 117
    4b94:	31 f4       	brne	.+12     	; 0x4ba2 <vfprintf+0x232>
    4b96:	23 2d       	mov	r18, r3
    4b98:	2f 7e       	andi	r18, 0xEF	; 239
    4b9a:	b2 2e       	mov	r11, r18
    4b9c:	2a e0       	ldi	r18, 0x0A	; 10
    4b9e:	30 e0       	ldi	r19, 0x00	; 0
    4ba0:	25 c0       	rjmp	.+74     	; 0x4bec <vfprintf+0x27c>
    4ba2:	93 2d       	mov	r25, r3
    4ba4:	99 7f       	andi	r25, 0xF9	; 249
    4ba6:	b9 2e       	mov	r11, r25
    4ba8:	8f 36       	cpi	r24, 0x6F	; 111
    4baa:	c1 f0       	breq	.+48     	; 0x4bdc <vfprintf+0x26c>
    4bac:	18 f4       	brcc	.+6      	; 0x4bb4 <vfprintf+0x244>
    4bae:	88 35       	cpi	r24, 0x58	; 88
    4bb0:	79 f0       	breq	.+30     	; 0x4bd0 <vfprintf+0x260>
    4bb2:	b5 c0       	rjmp	.+362    	; 0x4d1e <vfprintf+0x3ae>
    4bb4:	80 37       	cpi	r24, 0x70	; 112
    4bb6:	19 f0       	breq	.+6      	; 0x4bbe <vfprintf+0x24e>
    4bb8:	88 37       	cpi	r24, 0x78	; 120
    4bba:	21 f0       	breq	.+8      	; 0x4bc4 <vfprintf+0x254>
    4bbc:	b0 c0       	rjmp	.+352    	; 0x4d1e <vfprintf+0x3ae>
    4bbe:	e9 2f       	mov	r30, r25
    4bc0:	e0 61       	ori	r30, 0x10	; 16
    4bc2:	be 2e       	mov	r11, r30
    4bc4:	b4 fe       	sbrs	r11, 4
    4bc6:	0d c0       	rjmp	.+26     	; 0x4be2 <vfprintf+0x272>
    4bc8:	fb 2d       	mov	r31, r11
    4bca:	f4 60       	ori	r31, 0x04	; 4
    4bcc:	bf 2e       	mov	r11, r31
    4bce:	09 c0       	rjmp	.+18     	; 0x4be2 <vfprintf+0x272>
    4bd0:	34 fe       	sbrs	r3, 4
    4bd2:	0a c0       	rjmp	.+20     	; 0x4be8 <vfprintf+0x278>
    4bd4:	29 2f       	mov	r18, r25
    4bd6:	26 60       	ori	r18, 0x06	; 6
    4bd8:	b2 2e       	mov	r11, r18
    4bda:	06 c0       	rjmp	.+12     	; 0x4be8 <vfprintf+0x278>
    4bdc:	28 e0       	ldi	r18, 0x08	; 8
    4bde:	30 e0       	ldi	r19, 0x00	; 0
    4be0:	05 c0       	rjmp	.+10     	; 0x4bec <vfprintf+0x27c>
    4be2:	20 e1       	ldi	r18, 0x10	; 16
    4be4:	30 e0       	ldi	r19, 0x00	; 0
    4be6:	02 c0       	rjmp	.+4      	; 0x4bec <vfprintf+0x27c>
    4be8:	20 e1       	ldi	r18, 0x10	; 16
    4bea:	32 e0       	ldi	r19, 0x02	; 2
    4bec:	f8 01       	movw	r30, r16
    4bee:	b7 fe       	sbrs	r11, 7
    4bf0:	07 c0       	rjmp	.+14     	; 0x4c00 <vfprintf+0x290>
    4bf2:	60 81       	ld	r22, Z
    4bf4:	71 81       	ldd	r23, Z+1	; 0x01
    4bf6:	82 81       	ldd	r24, Z+2	; 0x02
    4bf8:	93 81       	ldd	r25, Z+3	; 0x03
    4bfa:	0c 5f       	subi	r16, 0xFC	; 252
    4bfc:	1f 4f       	sbci	r17, 0xFF	; 255
    4bfe:	06 c0       	rjmp	.+12     	; 0x4c0c <vfprintf+0x29c>
    4c00:	60 81       	ld	r22, Z
    4c02:	71 81       	ldd	r23, Z+1	; 0x01
    4c04:	80 e0       	ldi	r24, 0x00	; 0
    4c06:	90 e0       	ldi	r25, 0x00	; 0
    4c08:	0e 5f       	subi	r16, 0xFE	; 254
    4c0a:	1f 4f       	sbci	r17, 0xFF	; 255
    4c0c:	a3 01       	movw	r20, r6
    4c0e:	0e 94 eb 26 	call	0x4dd6	; 0x4dd6 <__ultoa_invert>
    4c12:	88 2e       	mov	r8, r24
    4c14:	86 18       	sub	r8, r6
    4c16:	fb 2d       	mov	r31, r11
    4c18:	ff 77       	andi	r31, 0x7F	; 127
    4c1a:	3f 2e       	mov	r3, r31
    4c1c:	36 fe       	sbrs	r3, 6
    4c1e:	0d c0       	rjmp	.+26     	; 0x4c3a <vfprintf+0x2ca>
    4c20:	23 2d       	mov	r18, r3
    4c22:	2e 7f       	andi	r18, 0xFE	; 254
    4c24:	a2 2e       	mov	r10, r18
    4c26:	89 14       	cp	r8, r9
    4c28:	58 f4       	brcc	.+22     	; 0x4c40 <vfprintf+0x2d0>
    4c2a:	34 fe       	sbrs	r3, 4
    4c2c:	0b c0       	rjmp	.+22     	; 0x4c44 <vfprintf+0x2d4>
    4c2e:	32 fc       	sbrc	r3, 2
    4c30:	09 c0       	rjmp	.+18     	; 0x4c44 <vfprintf+0x2d4>
    4c32:	83 2d       	mov	r24, r3
    4c34:	8e 7e       	andi	r24, 0xEE	; 238
    4c36:	a8 2e       	mov	r10, r24
    4c38:	05 c0       	rjmp	.+10     	; 0x4c44 <vfprintf+0x2d4>
    4c3a:	b8 2c       	mov	r11, r8
    4c3c:	a3 2c       	mov	r10, r3
    4c3e:	03 c0       	rjmp	.+6      	; 0x4c46 <vfprintf+0x2d6>
    4c40:	b8 2c       	mov	r11, r8
    4c42:	01 c0       	rjmp	.+2      	; 0x4c46 <vfprintf+0x2d6>
    4c44:	b9 2c       	mov	r11, r9
    4c46:	a4 fe       	sbrs	r10, 4
    4c48:	0f c0       	rjmp	.+30     	; 0x4c68 <vfprintf+0x2f8>
    4c4a:	fe 01       	movw	r30, r28
    4c4c:	e8 0d       	add	r30, r8
    4c4e:	f1 1d       	adc	r31, r1
    4c50:	80 81       	ld	r24, Z
    4c52:	80 33       	cpi	r24, 0x30	; 48
    4c54:	21 f4       	brne	.+8      	; 0x4c5e <vfprintf+0x2ee>
    4c56:	9a 2d       	mov	r25, r10
    4c58:	99 7e       	andi	r25, 0xE9	; 233
    4c5a:	a9 2e       	mov	r10, r25
    4c5c:	09 c0       	rjmp	.+18     	; 0x4c70 <vfprintf+0x300>
    4c5e:	a2 fe       	sbrs	r10, 2
    4c60:	06 c0       	rjmp	.+12     	; 0x4c6e <vfprintf+0x2fe>
    4c62:	b3 94       	inc	r11
    4c64:	b3 94       	inc	r11
    4c66:	04 c0       	rjmp	.+8      	; 0x4c70 <vfprintf+0x300>
    4c68:	8a 2d       	mov	r24, r10
    4c6a:	86 78       	andi	r24, 0x86	; 134
    4c6c:	09 f0       	breq	.+2      	; 0x4c70 <vfprintf+0x300>
    4c6e:	b3 94       	inc	r11
    4c70:	a3 fc       	sbrc	r10, 3
    4c72:	11 c0       	rjmp	.+34     	; 0x4c96 <vfprintf+0x326>
    4c74:	a0 fe       	sbrs	r10, 0
    4c76:	06 c0       	rjmp	.+12     	; 0x4c84 <vfprintf+0x314>
    4c78:	b2 14       	cp	r11, r2
    4c7a:	88 f4       	brcc	.+34     	; 0x4c9e <vfprintf+0x32e>
    4c7c:	28 0c       	add	r2, r8
    4c7e:	92 2c       	mov	r9, r2
    4c80:	9b 18       	sub	r9, r11
    4c82:	0e c0       	rjmp	.+28     	; 0x4ca0 <vfprintf+0x330>
    4c84:	b2 14       	cp	r11, r2
    4c86:	60 f4       	brcc	.+24     	; 0x4ca0 <vfprintf+0x330>
    4c88:	b6 01       	movw	r22, r12
    4c8a:	80 e2       	ldi	r24, 0x20	; 32
    4c8c:	90 e0       	ldi	r25, 0x00	; 0
    4c8e:	0e 94 af 26 	call	0x4d5e	; 0x4d5e <fputc>
    4c92:	b3 94       	inc	r11
    4c94:	f7 cf       	rjmp	.-18     	; 0x4c84 <vfprintf+0x314>
    4c96:	b2 14       	cp	r11, r2
    4c98:	18 f4       	brcc	.+6      	; 0x4ca0 <vfprintf+0x330>
    4c9a:	2b 18       	sub	r2, r11
    4c9c:	02 c0       	rjmp	.+4      	; 0x4ca2 <vfprintf+0x332>
    4c9e:	98 2c       	mov	r9, r8
    4ca0:	21 2c       	mov	r2, r1
    4ca2:	a4 fe       	sbrs	r10, 4
    4ca4:	10 c0       	rjmp	.+32     	; 0x4cc6 <vfprintf+0x356>
    4ca6:	b6 01       	movw	r22, r12
    4ca8:	80 e3       	ldi	r24, 0x30	; 48
    4caa:	90 e0       	ldi	r25, 0x00	; 0
    4cac:	0e 94 af 26 	call	0x4d5e	; 0x4d5e <fputc>
    4cb0:	a2 fe       	sbrs	r10, 2
    4cb2:	17 c0       	rjmp	.+46     	; 0x4ce2 <vfprintf+0x372>
    4cb4:	a1 fc       	sbrc	r10, 1
    4cb6:	03 c0       	rjmp	.+6      	; 0x4cbe <vfprintf+0x34e>
    4cb8:	88 e7       	ldi	r24, 0x78	; 120
    4cba:	90 e0       	ldi	r25, 0x00	; 0
    4cbc:	02 c0       	rjmp	.+4      	; 0x4cc2 <vfprintf+0x352>
    4cbe:	88 e5       	ldi	r24, 0x58	; 88
    4cc0:	90 e0       	ldi	r25, 0x00	; 0
    4cc2:	b6 01       	movw	r22, r12
    4cc4:	0c c0       	rjmp	.+24     	; 0x4cde <vfprintf+0x36e>
    4cc6:	8a 2d       	mov	r24, r10
    4cc8:	86 78       	andi	r24, 0x86	; 134
    4cca:	59 f0       	breq	.+22     	; 0x4ce2 <vfprintf+0x372>
    4ccc:	a1 fe       	sbrs	r10, 1
    4cce:	02 c0       	rjmp	.+4      	; 0x4cd4 <vfprintf+0x364>
    4cd0:	8b e2       	ldi	r24, 0x2B	; 43
    4cd2:	01 c0       	rjmp	.+2      	; 0x4cd6 <vfprintf+0x366>
    4cd4:	80 e2       	ldi	r24, 0x20	; 32
    4cd6:	a7 fc       	sbrc	r10, 7
    4cd8:	8d e2       	ldi	r24, 0x2D	; 45
    4cda:	b6 01       	movw	r22, r12
    4cdc:	90 e0       	ldi	r25, 0x00	; 0
    4cde:	0e 94 af 26 	call	0x4d5e	; 0x4d5e <fputc>
    4ce2:	89 14       	cp	r8, r9
    4ce4:	38 f4       	brcc	.+14     	; 0x4cf4 <vfprintf+0x384>
    4ce6:	b6 01       	movw	r22, r12
    4ce8:	80 e3       	ldi	r24, 0x30	; 48
    4cea:	90 e0       	ldi	r25, 0x00	; 0
    4cec:	0e 94 af 26 	call	0x4d5e	; 0x4d5e <fputc>
    4cf0:	9a 94       	dec	r9
    4cf2:	f7 cf       	rjmp	.-18     	; 0x4ce2 <vfprintf+0x372>
    4cf4:	8a 94       	dec	r8
    4cf6:	f3 01       	movw	r30, r6
    4cf8:	e8 0d       	add	r30, r8
    4cfa:	f1 1d       	adc	r31, r1
    4cfc:	80 81       	ld	r24, Z
    4cfe:	b6 01       	movw	r22, r12
    4d00:	90 e0       	ldi	r25, 0x00	; 0
    4d02:	0e 94 af 26 	call	0x4d5e	; 0x4d5e <fputc>
    4d06:	81 10       	cpse	r8, r1
    4d08:	f5 cf       	rjmp	.-22     	; 0x4cf4 <vfprintf+0x384>
    4d0a:	22 20       	and	r2, r2
    4d0c:	09 f4       	brne	.+2      	; 0x4d10 <vfprintf+0x3a0>
    4d0e:	42 ce       	rjmp	.-892    	; 0x4994 <vfprintf+0x24>
    4d10:	b6 01       	movw	r22, r12
    4d12:	80 e2       	ldi	r24, 0x20	; 32
    4d14:	90 e0       	ldi	r25, 0x00	; 0
    4d16:	0e 94 af 26 	call	0x4d5e	; 0x4d5e <fputc>
    4d1a:	2a 94       	dec	r2
    4d1c:	f6 cf       	rjmp	.-20     	; 0x4d0a <vfprintf+0x39a>
    4d1e:	f6 01       	movw	r30, r12
    4d20:	86 81       	ldd	r24, Z+6	; 0x06
    4d22:	97 81       	ldd	r25, Z+7	; 0x07
    4d24:	02 c0       	rjmp	.+4      	; 0x4d2a <vfprintf+0x3ba>
    4d26:	8f ef       	ldi	r24, 0xFF	; 255
    4d28:	9f ef       	ldi	r25, 0xFF	; 255
    4d2a:	2b 96       	adiw	r28, 0x0b	; 11
    4d2c:	e2 e1       	ldi	r30, 0x12	; 18
    4d2e:	0c 94 65 27 	jmp	0x4eca	; 0x4eca <__epilogue_restores__>

00004d32 <strnlen_P>:
    4d32:	fc 01       	movw	r30, r24
    4d34:	05 90       	lpm	r0, Z+
    4d36:	61 50       	subi	r22, 0x01	; 1
    4d38:	70 40       	sbci	r23, 0x00	; 0
    4d3a:	01 10       	cpse	r0, r1
    4d3c:	d8 f7       	brcc	.-10     	; 0x4d34 <strnlen_P+0x2>
    4d3e:	80 95       	com	r24
    4d40:	90 95       	com	r25
    4d42:	8e 0f       	add	r24, r30
    4d44:	9f 1f       	adc	r25, r31
    4d46:	08 95       	ret

00004d48 <strnlen>:
    4d48:	fc 01       	movw	r30, r24
    4d4a:	61 50       	subi	r22, 0x01	; 1
    4d4c:	70 40       	sbci	r23, 0x00	; 0
    4d4e:	01 90       	ld	r0, Z+
    4d50:	01 10       	cpse	r0, r1
    4d52:	d8 f7       	brcc	.-10     	; 0x4d4a <strnlen+0x2>
    4d54:	80 95       	com	r24
    4d56:	90 95       	com	r25
    4d58:	8e 0f       	add	r24, r30
    4d5a:	9f 1f       	adc	r25, r31
    4d5c:	08 95       	ret

00004d5e <fputc>:
    4d5e:	0f 93       	push	r16
    4d60:	1f 93       	push	r17
    4d62:	cf 93       	push	r28
    4d64:	df 93       	push	r29
    4d66:	fb 01       	movw	r30, r22
    4d68:	23 81       	ldd	r18, Z+3	; 0x03
    4d6a:	21 fd       	sbrc	r18, 1
    4d6c:	03 c0       	rjmp	.+6      	; 0x4d74 <fputc+0x16>
    4d6e:	8f ef       	ldi	r24, 0xFF	; 255
    4d70:	9f ef       	ldi	r25, 0xFF	; 255
    4d72:	2c c0       	rjmp	.+88     	; 0x4dcc <fputc+0x6e>
    4d74:	22 ff       	sbrs	r18, 2
    4d76:	16 c0       	rjmp	.+44     	; 0x4da4 <fputc+0x46>
    4d78:	46 81       	ldd	r20, Z+6	; 0x06
    4d7a:	57 81       	ldd	r21, Z+7	; 0x07
    4d7c:	24 81       	ldd	r18, Z+4	; 0x04
    4d7e:	35 81       	ldd	r19, Z+5	; 0x05
    4d80:	42 17       	cp	r20, r18
    4d82:	53 07       	cpc	r21, r19
    4d84:	44 f4       	brge	.+16     	; 0x4d96 <fputc+0x38>
    4d86:	a0 81       	ld	r26, Z
    4d88:	b1 81       	ldd	r27, Z+1	; 0x01
    4d8a:	9d 01       	movw	r18, r26
    4d8c:	2f 5f       	subi	r18, 0xFF	; 255
    4d8e:	3f 4f       	sbci	r19, 0xFF	; 255
    4d90:	31 83       	std	Z+1, r19	; 0x01
    4d92:	20 83       	st	Z, r18
    4d94:	8c 93       	st	X, r24
    4d96:	26 81       	ldd	r18, Z+6	; 0x06
    4d98:	37 81       	ldd	r19, Z+7	; 0x07
    4d9a:	2f 5f       	subi	r18, 0xFF	; 255
    4d9c:	3f 4f       	sbci	r19, 0xFF	; 255
    4d9e:	37 83       	std	Z+7, r19	; 0x07
    4da0:	26 83       	std	Z+6, r18	; 0x06
    4da2:	14 c0       	rjmp	.+40     	; 0x4dcc <fputc+0x6e>
    4da4:	8b 01       	movw	r16, r22
    4da6:	ec 01       	movw	r28, r24
    4da8:	fb 01       	movw	r30, r22
    4daa:	00 84       	ldd	r0, Z+8	; 0x08
    4dac:	f1 85       	ldd	r31, Z+9	; 0x09
    4dae:	e0 2d       	mov	r30, r0
    4db0:	09 95       	icall
    4db2:	89 2b       	or	r24, r25
    4db4:	e1 f6       	brne	.-72     	; 0x4d6e <fputc+0x10>
    4db6:	d8 01       	movw	r26, r16
    4db8:	16 96       	adiw	r26, 0x06	; 6
    4dba:	8d 91       	ld	r24, X+
    4dbc:	9c 91       	ld	r25, X
    4dbe:	17 97       	sbiw	r26, 0x07	; 7
    4dc0:	01 96       	adiw	r24, 0x01	; 1
    4dc2:	17 96       	adiw	r26, 0x07	; 7
    4dc4:	9c 93       	st	X, r25
    4dc6:	8e 93       	st	-X, r24
    4dc8:	16 97       	sbiw	r26, 0x06	; 6
    4dca:	ce 01       	movw	r24, r28
    4dcc:	df 91       	pop	r29
    4dce:	cf 91       	pop	r28
    4dd0:	1f 91       	pop	r17
    4dd2:	0f 91       	pop	r16
    4dd4:	08 95       	ret

00004dd6 <__ultoa_invert>:
    4dd6:	fa 01       	movw	r30, r20
    4dd8:	aa 27       	eor	r26, r26
    4dda:	28 30       	cpi	r18, 0x08	; 8
    4ddc:	51 f1       	breq	.+84     	; 0x4e32 <__ultoa_invert+0x5c>
    4dde:	20 31       	cpi	r18, 0x10	; 16
    4de0:	81 f1       	breq	.+96     	; 0x4e42 <__ultoa_invert+0x6c>
    4de2:	e8 94       	clt
    4de4:	6f 93       	push	r22
    4de6:	6e 7f       	andi	r22, 0xFE	; 254
    4de8:	6e 5f       	subi	r22, 0xFE	; 254
    4dea:	7f 4f       	sbci	r23, 0xFF	; 255
    4dec:	8f 4f       	sbci	r24, 0xFF	; 255
    4dee:	9f 4f       	sbci	r25, 0xFF	; 255
    4df0:	af 4f       	sbci	r26, 0xFF	; 255
    4df2:	b1 e0       	ldi	r27, 0x01	; 1
    4df4:	3e d0       	rcall	.+124    	; 0x4e72 <__ultoa_invert+0x9c>
    4df6:	b4 e0       	ldi	r27, 0x04	; 4
    4df8:	3c d0       	rcall	.+120    	; 0x4e72 <__ultoa_invert+0x9c>
    4dfa:	67 0f       	add	r22, r23
    4dfc:	78 1f       	adc	r23, r24
    4dfe:	89 1f       	adc	r24, r25
    4e00:	9a 1f       	adc	r25, r26
    4e02:	a1 1d       	adc	r26, r1
    4e04:	68 0f       	add	r22, r24
    4e06:	79 1f       	adc	r23, r25
    4e08:	8a 1f       	adc	r24, r26
    4e0a:	91 1d       	adc	r25, r1
    4e0c:	a1 1d       	adc	r26, r1
    4e0e:	6a 0f       	add	r22, r26
    4e10:	71 1d       	adc	r23, r1
    4e12:	81 1d       	adc	r24, r1
    4e14:	91 1d       	adc	r25, r1
    4e16:	a1 1d       	adc	r26, r1
    4e18:	20 d0       	rcall	.+64     	; 0x4e5a <__ultoa_invert+0x84>
    4e1a:	09 f4       	brne	.+2      	; 0x4e1e <__ultoa_invert+0x48>
    4e1c:	68 94       	set
    4e1e:	3f 91       	pop	r19
    4e20:	2a e0       	ldi	r18, 0x0A	; 10
    4e22:	26 9f       	mul	r18, r22
    4e24:	11 24       	eor	r1, r1
    4e26:	30 19       	sub	r19, r0
    4e28:	30 5d       	subi	r19, 0xD0	; 208
    4e2a:	31 93       	st	Z+, r19
    4e2c:	de f6       	brtc	.-74     	; 0x4de4 <__ultoa_invert+0xe>
    4e2e:	cf 01       	movw	r24, r30
    4e30:	08 95       	ret
    4e32:	46 2f       	mov	r20, r22
    4e34:	47 70       	andi	r20, 0x07	; 7
    4e36:	40 5d       	subi	r20, 0xD0	; 208
    4e38:	41 93       	st	Z+, r20
    4e3a:	b3 e0       	ldi	r27, 0x03	; 3
    4e3c:	0f d0       	rcall	.+30     	; 0x4e5c <__ultoa_invert+0x86>
    4e3e:	c9 f7       	brne	.-14     	; 0x4e32 <__ultoa_invert+0x5c>
    4e40:	f6 cf       	rjmp	.-20     	; 0x4e2e <__ultoa_invert+0x58>
    4e42:	46 2f       	mov	r20, r22
    4e44:	4f 70       	andi	r20, 0x0F	; 15
    4e46:	40 5d       	subi	r20, 0xD0	; 208
    4e48:	4a 33       	cpi	r20, 0x3A	; 58
    4e4a:	18 f0       	brcs	.+6      	; 0x4e52 <__ultoa_invert+0x7c>
    4e4c:	49 5d       	subi	r20, 0xD9	; 217
    4e4e:	31 fd       	sbrc	r19, 1
    4e50:	40 52       	subi	r20, 0x20	; 32
    4e52:	41 93       	st	Z+, r20
    4e54:	02 d0       	rcall	.+4      	; 0x4e5a <__ultoa_invert+0x84>
    4e56:	a9 f7       	brne	.-22     	; 0x4e42 <__ultoa_invert+0x6c>
    4e58:	ea cf       	rjmp	.-44     	; 0x4e2e <__ultoa_invert+0x58>
    4e5a:	b4 e0       	ldi	r27, 0x04	; 4
    4e5c:	a6 95       	lsr	r26
    4e5e:	97 95       	ror	r25
    4e60:	87 95       	ror	r24
    4e62:	77 95       	ror	r23
    4e64:	67 95       	ror	r22
    4e66:	ba 95       	dec	r27
    4e68:	c9 f7       	brne	.-14     	; 0x4e5c <__ultoa_invert+0x86>
    4e6a:	00 97       	sbiw	r24, 0x00	; 0
    4e6c:	61 05       	cpc	r22, r1
    4e6e:	71 05       	cpc	r23, r1
    4e70:	08 95       	ret
    4e72:	9b 01       	movw	r18, r22
    4e74:	ac 01       	movw	r20, r24
    4e76:	0a 2e       	mov	r0, r26
    4e78:	06 94       	lsr	r0
    4e7a:	57 95       	ror	r21
    4e7c:	47 95       	ror	r20
    4e7e:	37 95       	ror	r19
    4e80:	27 95       	ror	r18
    4e82:	ba 95       	dec	r27
    4e84:	c9 f7       	brne	.-14     	; 0x4e78 <__ultoa_invert+0xa2>
    4e86:	62 0f       	add	r22, r18
    4e88:	73 1f       	adc	r23, r19
    4e8a:	84 1f       	adc	r24, r20
    4e8c:	95 1f       	adc	r25, r21
    4e8e:	a0 1d       	adc	r26, r0
    4e90:	08 95       	ret

00004e92 <__prologue_saves__>:
    4e92:	2f 92       	push	r2
    4e94:	3f 92       	push	r3
    4e96:	4f 92       	push	r4
    4e98:	5f 92       	push	r5
    4e9a:	6f 92       	push	r6
    4e9c:	7f 92       	push	r7
    4e9e:	8f 92       	push	r8
    4ea0:	9f 92       	push	r9
    4ea2:	af 92       	push	r10
    4ea4:	bf 92       	push	r11
    4ea6:	cf 92       	push	r12
    4ea8:	df 92       	push	r13
    4eaa:	ef 92       	push	r14
    4eac:	ff 92       	push	r15
    4eae:	0f 93       	push	r16
    4eb0:	1f 93       	push	r17
    4eb2:	cf 93       	push	r28
    4eb4:	df 93       	push	r29
    4eb6:	cd b7       	in	r28, 0x3d	; 61
    4eb8:	de b7       	in	r29, 0x3e	; 62
    4eba:	ca 1b       	sub	r28, r26
    4ebc:	db 0b       	sbc	r29, r27
    4ebe:	0f b6       	in	r0, 0x3f	; 63
    4ec0:	f8 94       	cli
    4ec2:	de bf       	out	0x3e, r29	; 62
    4ec4:	0f be       	out	0x3f, r0	; 63
    4ec6:	cd bf       	out	0x3d, r28	; 61
    4ec8:	09 94       	ijmp

00004eca <__epilogue_restores__>:
    4eca:	2a 88       	ldd	r2, Y+18	; 0x12
    4ecc:	39 88       	ldd	r3, Y+17	; 0x11
    4ece:	48 88       	ldd	r4, Y+16	; 0x10
    4ed0:	5f 84       	ldd	r5, Y+15	; 0x0f
    4ed2:	6e 84       	ldd	r6, Y+14	; 0x0e
    4ed4:	7d 84       	ldd	r7, Y+13	; 0x0d
    4ed6:	8c 84       	ldd	r8, Y+12	; 0x0c
    4ed8:	9b 84       	ldd	r9, Y+11	; 0x0b
    4eda:	aa 84       	ldd	r10, Y+10	; 0x0a
    4edc:	b9 84       	ldd	r11, Y+9	; 0x09
    4ede:	c8 84       	ldd	r12, Y+8	; 0x08
    4ee0:	df 80       	ldd	r13, Y+7	; 0x07
    4ee2:	ee 80       	ldd	r14, Y+6	; 0x06
    4ee4:	fd 80       	ldd	r15, Y+5	; 0x05
    4ee6:	0c 81       	ldd	r16, Y+4	; 0x04
    4ee8:	1b 81       	ldd	r17, Y+3	; 0x03
    4eea:	aa 81       	ldd	r26, Y+2	; 0x02
    4eec:	b9 81       	ldd	r27, Y+1	; 0x01
    4eee:	ce 0f       	add	r28, r30
    4ef0:	d1 1d       	adc	r29, r1
    4ef2:	0f b6       	in	r0, 0x3f	; 63
    4ef4:	f8 94       	cli
    4ef6:	de bf       	out	0x3e, r29	; 62
    4ef8:	0f be       	out	0x3f, r0	; 63
    4efa:	cd bf       	out	0x3d, r28	; 61
    4efc:	ed 01       	movw	r28, r26
    4efe:	08 95       	ret

00004f00 <_exit>:
    4f00:	f8 94       	cli

00004f02 <__stop_program>:
    4f02:	ff cf       	rjmp	.-2      	; 0x4f02 <__stop_program>
